
output/kernel/reduction/reducesum_row/elf/kernel_reduction_reducesum_row_reducesum_row_DTypeint32_t_tM16_tN512_GM16_GN1024.elf:	file format elf64-unknown

Disassembly of section .firmware:

0000000070000000 <_start>:
; _start():
70000000: 0e22         	C.BSTART.STD	DIRECT, 0x700001c4 <_linx_start>
70000002: 5056         	c.setret	0x70000004, ->ra <_end>

0000000070000004 <_end>:
; _end():
70000004: 0840         	C.BSTART.AUX	
70000006: 05e00a95     	addi	zero, 94, 	->x1
7000000a: 0010302b     	acrc 1
7000000e: 0000         	C.BSTOP

0000000070000010 <_Z19sys_all_stacks_sizev>:
; _Z19sys_all_stacks_sizev():
70000010: 3800         	C.BSTART.STD	RET
70000012: 00900117     	lui	2304, 	->a0
70000016: 029c         	c.setc.tgt	ra
70000018: 0800         	C.BSTART.STD	

000000007000001a <_Z14sys_stack_basev>:
; _Z14sys_stack_basev():
7000001a: 3800         	C.BSTART.STD	RET
7000001c: afff0f97     	lui	-327696, 	->t
70000020: 05803105     	or	zero, t#1.uw, 	->a0
70000024: 029c         	c.setc.tgt	ra
70000026: 0800         	C.BSTART.STD	

0000000070000028 <_Z14sys_heap_limitv>:
; _Z14sys_heap_limitv():
70000028: 3800         	C.BSTART.STD	RET
7000002a: af6f0f97     	lui	-330000, 	->t
7000002e: 05803105     	or	zero, t#1.uw, 	->a0
70000032: 029c         	c.setc.tgt	ra
70000034: 0800         	C.BSTART.STD	

0000000070000036 <_Z18sys_cpu_stack_basei>:
; _Z18sys_cpu_stack_basei():
70000036: 3800         	C.BSTART.STD	RET
70000038: 00900f97     	lui	2304, 	->t
7000003c: 01810fc7     	mul	a0, t#1, 	->t
70000040: afff0f97     	lui	-327696, 	->t
70000044: 6e1c         	c.zext.w	t#1, ->t
70000046: 03ac1105     	sub	t#1, t#3.sw, 	->a0
7000004a: 029c         	c.setc.tgt	ra
7000004c: 0800         	C.BSTART.STD	

000000007000004e <_Z26initialise_monitor_handlesv>:
; _Z26initialise_monitor_handlesv():
7000004e: 3800         	C.BSTART.STD	RET
70000050: 029c         	c.setc.tgt	ra
70000052: 0800         	C.BSTART.STD	

0000000070000054 <_Z6_closei>:
; _Z6_closei():
70000054: 0800         	C.BSTART.STD	
70000056: 0800         	C.BSTART.STD	

0000000070000058 <_Z13_gettimeofdayP7timevalPv>:
; _Z13_gettimeofdayP7timevalPv():
70000058: 0800         	C.BSTART.STD	
7000005a: 0800         	C.BSTART.STD	

000000007000005c <_Z7_isattyi>:
; _Z7_isattyi():
7000005c: 0800         	C.BSTART.STD	
7000005e: 0800         	C.BSTART.STD	

0000000070000060 <_Z6_lseekimi>:
; _Z6_lseekimi():
70000060: 0800         	C.BSTART.STD	
70000062: 0800         	C.BSTART.STD	

0000000070000064 <_Z5_openPKciz>:
; _Z5_openPKciz():
70000064: 0800         	C.BSTART.STD	
70000066: 10009095     	subi	sp, 256, 	->sp
7000006a: 3800         	C.BSTART.STD	RET
7000006c: 3e14b059     	sdi	a7, [sp, 248]
70000070: 3c143059     	sdi	a6, [sp, 240]
70000074: 3a13b059     	sdi	a5, [sp, 232]
70000078: 38133059     	sdi	a4, [sp, 224]
7000007c: 3612b059     	sdi	a3, [sp, 216]
70000080: 34123059     	sdi	a2, [sp, 208]
70000084: 1056         	c.movi	1, 	->a0
70000086: 10008095     	addi	sp, 256, 	->sp
7000008a: 029c         	c.setc.tgt	ra
7000008c: 0800         	C.BSTART.STD	

000000007000008e <_Z5_readiPhi>:
; _Z5_readiPhi():
7000008e: 0800         	C.BSTART.STD	
70000090: 0800         	C.BSTART.STD	

0000000070000092 <_Z7_renamePKcS0_>:
; _Z7_renamePKcS0_():
70000092: 0800         	C.BSTART.STD	
70000094: 0800         	C.BSTART.STD	

0000000070000096 <_Z7_unlinkPKc>:
; _Z7_unlinkPKc():
70000096: 0800         	C.BSTART.STD	
70000098: 0800         	C.BSTART.STD	

000000007000009a <_exit>:
; _exit():
7000009a: 0800         	C.BSTART.STD	
7000009c: 0800         	C.BSTART.STD	

000000007000009e <_Z5_killii>:
; _Z5_killii():
7000009e: 0800         	C.BSTART.STD	
700000a0: 0800         	C.BSTART.STD	

00000000700000a2 <_Z6_fstatiP4stat>:
; _Z6_fstatiP4stat():
700000a2: 0800         	C.BSTART.STD	
700000a4: 0800         	C.BSTART.STD	

00000000700000a6 <_Z5writeiPci>:
; _Z5writeiPci():
700000a6: 0134         	C.BSTART.STD	COND, 0x700000cc <.LBB13_3>
700000a8: 1106         	c.movr	a2, 	->a0
700000aa: 00114075     	setc.lti	a0, 1
700000ae: 0800         	C.BSTART.STD	
700000b0: 2006         	c.movr	zero, 	->a2

00000000700000b2 <.LBB13_2>:
; .LBB13_2():
700000b2: 0004         	C.BSTART.STD	COND, 0x700000b2 <.LBB13_2>
700000b4: 08cc         	c.addi	a1, 1, ->t
700000b6: 00018f89     	lb	[a1, zero], 	->t
700000ba: 1e46         	c.movr	t#2, 	->a1
700000bc: 13000f97     	lui	77824, 	->t
700000c0: c80c0049     	sb	t#2, [t#1, zero]
700000c4: 00120235     	addiw	a2, 1, 	->a2
700000c8: 00224065     	setc.lt	a2, a0

00000000700000cc <.LBB13_3>:
; .LBB13_3():
700000cc: 3800         	C.BSTART.STD	RET
700000ce: 029c         	c.setc.tgt	ra
700000d0: 0800         	C.BSTART.STD	

00000000700000d2 <_Z5_sbrki>:
; _Z5_sbrki():
700000d2: 40b50041     	FENTRY	[ra ~ s0], sp!, 256
700000d6: 0800         	C.BSTART.STD	
700000d8: 00f4         	C.BSTART.STD	COND, 0x700000f6 <.LBB14_4>
700000da: 5886         	c.movr	a0, 	->s0
; ():
700000dc: 00000f87     	addtpc	0, 	->t
700000e0: 10cc33a9     	ldi.u	[t#1, 268], 	->a5
700000e4: 01f6         	c.setc.ne	a5, zero
700000e6: fa12         	C.BSTART.STD	DIRECT, 0x70000028 <_Z14sys_heap_limitv>
700000e8: 5056         	c.setret	0x700000ea, ->ra <_Z5_sbrki+0x18>
700000ea: 0800         	C.BSTART.STD	
700000ec: 3886         	c.movr	a0, 	->a5
700000ee: 00000f87     	addtpc	0, 	->t
700000f2: f583f0d9     	sdi.u	a5, [t#1, 250]

00000000700000f6 <.LBB14_4>:
; .LBB14_4():
700000f6: 0254         	C.BSTART.STD	COND, 0x70000140 <.LBB14_8>
; ():
700000f8: 00000f87     	addtpc	0, 	->t
700000fc: 0e8c3129     	ldi.u	[t#1, 232], 	->a0
70000100: 5888         	c.add	a0, s0, ->t
70000102: d19c70d9     	sdi.u	t#1, [t#2, 232]
70000106: 00058fd5     	cmp.eqi	s0, 0, 	->t
7000010a: 007cefc5     	cmp.ltu	t#2, a5, 	->t
7000010e: 018cb065     	setc.or	t#2, t#1
70000112: 00080591     	BSTART.STD	DIRECT, 0x70002128 <snprintf>
70000116: 5356         	c.setret	0x70000130, ->ra <.LBB14_4+0x3a>
70000118: 2ac6         	c.movr	s0, 	->a3
7000011a: 3086         	c.movr	a0, 	->a4
7000011c: 00007f87     	addtpc	7, 	->t
70000120: 60cc1115     	subi	t#1, 1548, 	->a0
70000124: 00006f87     	addtpc	6, 	->t
70000128: 37cc1215     	subi	t#1, 892, 	->a2
7000012c: 10000195     	addi	zero, 256, 	->a1
70000130: 0007fa11     	BSTART.STD	DIRECT, 0x70002118 <__errno_location>
70000134: 5056         	c.setret	0x70000136, ->ra <.LBB14_4+0x40>
70000136: 0800         	C.BSTART.STD	
70000138: fb16         	c.movi	12, 	->t
7000013a: c0012049     	sw	t#1, [a0, zero<<2]
7000013e: 17d6         	c.movi	-1, 	->a0

0000000070000140 <.LBB14_8>:
; .LBB14_8():
70000140: 0800         	C.BSTART.STD	
70000142: 40b53041     	FRET.STK	[ra ~ s0], sp!, 256
70000146: 0800         	C.BSTART.STD	

0000000070000148 <_Z7mmalloci>:
; _Z7mmalloci():
70000148: 40b50041     	FENTRY	[ra ~ s0], sp!, 256
7000014c: 0800         	C.BSTART.STD	
7000014e: 00f4         	C.BSTART.STD	COND, 0x7000016c <.LBB15_4>
70000150: 5886         	c.movr	a0, 	->s0
; ():
70000152: 00000f87     	addtpc	0, 	->t
70000156: 096c33a9     	ldi.u	[t#1, 150], 	->a5
7000015a: 01f6         	c.setc.ne	a5, zero
7000015c: f662         	C.BSTART.STD	DIRECT, 0x70000028 <_Z14sys_heap_limitv>
7000015e: 5056         	c.setret	0x70000160, ->ra <_Z7mmalloci+0x18>
70000160: 0800         	C.BSTART.STD	
70000162: 3886         	c.movr	a0, 	->a5
70000164: 00000f87     	addtpc	0, 	->t
70000168: 0983f0d9     	sdi.u	a5, [t#1, 132]

000000007000016c <.LBB15_4>:
; .LBB15_4():
7000016c: 0254         	C.BSTART.STD	COND, 0x700001b6 <.LBB15_8>
; ():
7000016e: 00000f87     	addtpc	0, 	->t
70000172: 072c3129     	ldi.u	[t#1, 114], 	->a0
70000176: 5888         	c.add	a0, s0, ->t
70000178: e59c7059     	sdi.u	t#1, [t#2, 114]
7000017c: 00058fd5     	cmp.eqi	s0, 0, 	->t
70000180: 007cefc5     	cmp.ltu	t#2, a5, 	->t
70000184: 018cb065     	setc.or	t#2, t#1
70000188: 0007e811     	BSTART.STD	DIRECT, 0x70002128 <snprintf>
7000018c: 5356         	c.setret	0x700001a6, ->ra <.LBB15_4+0x3a>
7000018e: 2ac6         	c.movr	s0, 	->a3
70000190: 3086         	c.movr	a0, 	->a4
70000192: 00007f87     	addtpc	7, 	->t
70000196: 682c1115     	subi	t#1, 1666, 	->a0
7000019a: 00006f87     	addtpc	6, 	->t
7000019e: 3f2c1215     	subi	t#1, 1010, 	->a2
700001a2: 10000195     	addi	zero, 256, 	->a1
700001a6: 0007dc91     	BSTART.STD	DIRECT, 0x70002118 <__errno_location>
700001aa: 5056         	c.setret	0x700001ac, ->ra <.LBB15_4+0x40>
700001ac: 0800         	C.BSTART.STD	
700001ae: fb16         	c.movi	12, 	->t
700001b0: c0012049     	sw	t#1, [a0, zero<<2]
700001b4: 17d6         	c.movi	-1, 	->a0

00000000700001b6 <.LBB15_8>:
; .LBB15_8():
700001b6: 0800         	C.BSTART.STD	
700001b8: 40b53041     	FRET.STK	[ra ~ s0], sp!, 256
700001bc: 0800         	C.BSTART.STD	

00000000700001be <_Z9init_libcv>:
; _Z9init_libcv():
700001be: 3800         	C.BSTART.STD	RET
700001c0: 029c         	c.setc.tgt	ra
700001c2: 0800         	C.BSTART.STD	

00000000700001c4 <_linx_start>:
; _linx_start():
700001c4: 40a50041     	FENTRY	[ra ~ ra], sp!, 256
700001c8: 0800         	C.BSTART.STD	
700001ca: 00040711     	BSTART.STD	DIRECT, 0x700011e6 <main>
700001ce: 50d6         	c.setret	0x700001d4, ->ra <_linx_start+0x10>
700001d0: 1006         	c.movr	zero, 	->a0
700001d2: 1806         	c.movr	zero, 	->a1
; ():
700001d4: 0800         	C.BSTART.STD	
700001d6: 1006         	c.movr	zero, 	->a0
700001d8: 40a53041     	FRET.STK	[ra ~ ra], sp!, 256
700001dc: 0800         	C.BSTART.STD	
700001de: 0000         	C.BSTOP

00000000700001e0 <_ZZ5_sbrkiE8heap_end>:
700001e0: 00 00 00 72 00 00 00 00         ...r....

00000000700001e8 <_ZZ5_sbrkiE10heap_limit>:
700001e8: 00 00 00 00 00 00 00 00         ........

Disassembly of section .text:

0000000070001000 <__cxx_global_var_init>:
; __cxx_global_var_init():
70001000: 0184         	C.BSTART.STD	COND, 0x70001030 <.LBB4_2>
; ():
70001002: 00006f87     	addtpc	6, 	->t
70001006: 9d6c4f99     	lbui	[t#1, -1578], 	->t
7000100a: 0636         	c.setc.ne	t#1, zero
7000100c: 0800         	C.BSTART.STD	
7000100e: 00006f87     	addtpc	6, 	->t
70001012: f856         	c.movi	1, 	->t
70001014: 859c7a59     	sdi.u	t#1, [t#2, -1470]
70001018: 5bec9f95     	subi	t#2, 1470, 	->t
7000101c: 05802059     	swi	zero, [t#1, 8]
70001020: 07802059     	swi	zero, [t#1, 12]
70001024: 09802059     	swi	zero, [t#1, 16]
70001028: 00006f87     	addtpc	6, 	->t
7000102c: 618d09d9     	sbi	t#3, [t#1, -1616]

0000000070001030 <.LBB4_2>:
; .LBB4_2():
70001030: 3800         	C.BSTART.STD	RET
70001032: 029c         	c.setc.tgt	ra
70001034: 0800         	C.BSTART.STD	

0000000070001036 <__cxx_global_var_init.4>:
; __cxx_global_var_init.4():
70001036: 0184         	C.BSTART.STD	COND, 0x70001066 <.LBB5_2>
; ():
70001038: 00006f87     	addtpc	6, 	->t
7000103c: 9a8c4f99     	lbui	[t#1, -1624], 	->t
70001040: 0636         	c.setc.ne	t#1, zero
70001042: 0800         	C.BSTART.STD	
70001044: 00006f87     	addtpc	6, 	->t
70001048: f856         	c.movi	1, 	->t
7000104a: 499c7a59     	sdi.u	t#1, [t#2, -1500]
7000104e: 5dcc9f95     	subi	t#2, 1500, 	->t
70001052: 05802059     	swi	zero, [t#1, 8]
70001056: 07802059     	swi	zero, [t#1, 12]
7000105a: 09802059     	swi	zero, [t#1, 16]
7000105e: 00006f87     	addtpc	6, 	->t
70001062: 058d09d9     	sbi	t#3, [t#1, -1662]

0000000070001066 <.LBB5_2>:
; .LBB5_2():
70001066: 3800         	C.BSTART.STD	RET
70001068: 029c         	c.setc.tgt	ra
7000106a: 0800         	C.BSTART.STD	

000000007000106c <__cxx_global_var_init.5>:
; __cxx_global_var_init.5():
7000106c: 0184         	C.BSTART.STD	COND, 0x7000109c <.LBB6_2>
; ():
7000106e: 00006f87     	addtpc	6, 	->t
70001072: 97ac4f99     	lbui	[t#1, -1670], 	->t
70001076: 0636         	c.setc.ne	t#1, zero
70001078: 0800         	C.BSTART.STD	
7000107a: 00006f87     	addtpc	6, 	->t
7000107e: f856         	c.movi	1, 	->t
70001080: 0d9c7a59     	sdi.u	t#1, [t#2, -1530]
70001084: 5fac9f95     	subi	t#2, 1530, 	->t
70001088: 05802059     	swi	zero, [t#1, 8]
7000108c: 07802059     	swi	zero, [t#1, 12]
70001090: 09802059     	swi	zero, [t#1, 16]
70001094: 00006f87     	addtpc	6, 	->t
70001098: a98d0959     	sbi	t#3, [t#1, -1708]

000000007000109c <.LBB6_2>:
; .LBB6_2():
7000109c: 3800         	C.BSTART.STD	RET
7000109e: 029c         	c.setc.tgt	ra
700010a0: 0800         	C.BSTART.STD	

00000000700010a2 <__cxx_global_var_init.6>:
; __cxx_global_var_init.6():
700010a2: 0184         	C.BSTART.STD	COND, 0x700010d2 <.LBB7_2>
; ():
700010a4: 00006f87     	addtpc	6, 	->t
700010a8: 94cc4f99     	lbui	[t#1, -1716], 	->t
700010ac: 0636         	c.setc.ne	t#1, zero
700010ae: 0800         	C.BSTART.STD	
700010b0: 00006f87     	addtpc	6, 	->t
700010b4: f856         	c.movi	1, 	->t
700010b6: d19c79d9     	sdi.u	t#1, [t#2, -1560]
700010ba: 618c9f95     	subi	t#2, 1560, 	->t
700010be: 05802059     	swi	zero, [t#1, 8]
700010c2: 07802059     	swi	zero, [t#1, 12]
700010c6: 09802059     	swi	zero, [t#1, 16]
700010ca: 00006f87     	addtpc	6, 	->t
700010ce: 4d8d0959     	sbi	t#3, [t#1, -1754]

00000000700010d2 <.LBB7_2>:
; .LBB7_2():
700010d2: 3800         	C.BSTART.STD	RET
700010d4: 029c         	c.setc.tgt	ra
700010d6: 0800         	C.BSTART.STD	

00000000700010d8 <__cxx_global_var_init.7>:
; __cxx_global_var_init.7():
700010d8: 0184         	C.BSTART.STD	COND, 0x70001108 <.LBB8_2>
; ():
700010da: 00006f87     	addtpc	6, 	->t
700010de: 91ec4f99     	lbui	[t#1, -1762], 	->t
700010e2: 0636         	c.setc.ne	t#1, zero
700010e4: 0800         	C.BSTART.STD	
700010e6: 00006f87     	addtpc	6, 	->t
700010ea: f856         	c.movi	1, 	->t
700010ec: 959c79d9     	sdi.u	t#1, [t#2, -1590]
700010f0: 636c9f95     	subi	t#2, 1590, 	->t
700010f4: 05802059     	swi	zero, [t#1, 8]
700010f8: 07802059     	swi	zero, [t#1, 12]
700010fc: 09802059     	swi	zero, [t#1, 16]
70001100: 00006f87     	addtpc	6, 	->t
70001104: f18d08d9     	sbi	t#3, [t#1, -1800]

0000000070001108 <.LBB8_2>:
; .LBB8_2():
70001108: 3800         	C.BSTART.STD	RET
7000110a: 029c         	c.setc.tgt	ra
7000110c: 0800         	C.BSTART.STD	

000000007000110e <__cxx_global_var_init.8>:
; __cxx_global_var_init.8():
7000110e: 0184         	C.BSTART.STD	COND, 0x7000113e <.LBB9_2>
; ():
70001110: 00006f87     	addtpc	6, 	->t
70001114: 8f0c4f99     	lbui	[t#1, -1808], 	->t
70001118: 0636         	c.setc.ne	t#1, zero
7000111a: 0800         	C.BSTART.STD	
7000111c: 00006f87     	addtpc	6, 	->t
70001120: f856         	c.movi	1, 	->t
70001122: 599c79d9     	sdi.u	t#1, [t#2, -1620]
70001126: 654c9f95     	subi	t#2, 1620, 	->t
7000112a: 05802059     	swi	zero, [t#1, 8]
7000112e: 07802059     	swi	zero, [t#1, 12]
70001132: 09802059     	swi	zero, [t#1, 16]
70001136: 00006f87     	addtpc	6, 	->t
7000113a: 958d08d9     	sbi	t#3, [t#1, -1846]

000000007000113e <.LBB9_2>:
; .LBB9_2():
7000113e: 3800         	C.BSTART.STD	RET
70001140: 029c         	c.setc.tgt	ra
70001142: 0800         	C.BSTART.STD	

0000000070001144 <__cxx_global_var_init.9>:
; __cxx_global_var_init.9():
70001144: 0184         	C.BSTART.STD	COND, 0x70001174 <.LBB10_2>
; ():
70001146: 00006f87     	addtpc	6, 	->t
7000114a: 8c2c4f99     	lbui	[t#1, -1854], 	->t
7000114e: 0636         	c.setc.ne	t#1, zero
70001150: 0800         	C.BSTART.STD	
70001152: 00006f87     	addtpc	6, 	->t
70001156: f856         	c.movi	1, 	->t
70001158: 1d9c79d9     	sdi.u	t#1, [t#2, -1650]
7000115c: 672c9f95     	subi	t#2, 1650, 	->t
70001160: 05802059     	swi	zero, [t#1, 8]
70001164: 07802059     	swi	zero, [t#1, 12]
70001168: 09802059     	swi	zero, [t#1, 16]
7000116c: 00006f87     	addtpc	6, 	->t
70001170: 398d08d9     	sbi	t#3, [t#1, -1892]

0000000070001174 <.LBB10_2>:
; .LBB10_2():
70001174: 3800         	C.BSTART.STD	RET
70001176: 029c         	c.setc.tgt	ra
70001178: 0800         	C.BSTART.STD	

000000007000117a <__cxx_global_var_init.10>:
; __cxx_global_var_init.10():
7000117a: 0184         	C.BSTART.STD	COND, 0x700011aa <.LBB11_2>
; ():
7000117c: 00006f87     	addtpc	6, 	->t
70001180: 894c4f99     	lbui	[t#1, -1900], 	->t
70001184: 0636         	c.setc.ne	t#1, zero
70001186: 0800         	C.BSTART.STD	
70001188: 00006f87     	addtpc	6, 	->t
7000118c: f856         	c.movi	1, 	->t
7000118e: e19c7959     	sdi.u	t#1, [t#2, -1680]
70001192: 690c9f95     	subi	t#2, 1680, 	->t
70001196: 05802059     	swi	zero, [t#1, 8]
7000119a: 07802059     	swi	zero, [t#1, 12]
7000119e: 09802059     	swi	zero, [t#1, 16]
700011a2: 00006f87     	addtpc	6, 	->t
700011a6: dd8d0859     	sbi	t#3, [t#1, -1938]

00000000700011aa <.LBB11_2>:
; .LBB11_2():
700011aa: 3800         	C.BSTART.STD	RET
700011ac: 029c         	c.setc.tgt	ra
700011ae: 0800         	C.BSTART.STD	

00000000700011b0 <_ZN3pto18layout_type_to_strENS_10LayoutEnumE>:
; _ZN3pto18layout_type_to_strENS_10LayoutEnumE():
700011b0: 00d4         	C.BSTART.STD	COND, 0x700011ca <.LBB0_2>
; ():
700011b2: 00005187     	addtpc	5, 	->a1
700011b6: f896         	c.movi	2, 	->t
700011b8: 002c6065     	setc.ltu	t#1, a0
700011bc: 00a2         	C.BSTART.STD	DIRECT, 0x700011d0 <.LBB0_3>
700011be: 00005f87     	addtpc	5, 	->t
700011c2: 7fac0f95     	addi	t#1, 2042, 	->t
700011c6: 182c3109     	ld	[t#1, a0<<3], 	->a0

00000000700011ca <.LBB0_2>:
; .LBB0_2():
700011ca: 0800         	C.BSTART.STD	
700011cc: 46a19115     	subi	a1, 1130, 	->a0

00000000700011d0 <.LBB0_3>:
; .LBB0_3():
700011d0: 3800         	C.BSTART.STD	RET
700011d2: 029c         	c.setc.tgt	ra
700011d4: 0800         	C.BSTART.STD	

00000000700011d6 <_Z15writeBinaryFilePKcPKhm>:
; _Z15writeBinaryFilePKcPKhm():
700011d6: 3800         	C.BSTART.STD	RET
700011d8: 1056         	c.movi	1, 	->a0
700011da: 029c         	c.setc.tgt	ra
700011dc: 0800         	C.BSTART.STD	

00000000700011de <_Z14readBinaryFilePKcPhm>:
; _Z14readBinaryFilePKcPhm():
700011de: 3800         	C.BSTART.STD	RET
700011e0: 1056         	c.movi	1, 	->a0
700011e2: 029c         	c.setc.tgt	ra
700011e4: 0800         	C.BSTART.STD	

00000000700011e6 <main>:
; main():
700011e6: 0800         	C.BSTART.STD	
700011e8: fffeff97     	lui	-17, 	->t
700011ec: f00c0f95     	addi	t#1, 3840, 	->t
700011f0: 01808085     	add	sp, t#1, 	->sp
700011f4: 1006         	c.movr	zero, 	->a0
700011f6: 02021181     	BSTART.VPAR	VS16
700011fa: 000c6093     	B.IOT	[], last	->u<4KB>
700011fe: 00010013     	B.IOR	[a0],[]
70001202: 043c         	C.B.DIMI	16, 	->lb0
70001204: 423c         	C.B.DIMI	8, 	->lb1
70001206: 0003bb83     	B.TEXT	0x700020f4 <_Z25ExpandScalarImpl_ColMajorIN3pto4TileILNS0_8LocationE0EiLi16ELi64ELNS0_7BLayoutE1ELi16ELi8ELNS0_7SLayoutE0ELi512ELNS0_8PadValueE3EEEEvNT_9TileDTypeENS7_7int32_tE>
7000120a: 02021181     	BSTART.VPAR	VS16
7000120e: 000c6013     	B.IOT	[], last	->t<4KB>
70001212: 00010013     	B.IOR	[a0],[]
70001216: 043c         	C.B.DIMI	16, 	->lb0
70001218: 503c         	C.B.DIMI	64, 	->lb1
7000121a: 0003ba83     	B.TEXT	0x70002104 <_Z25ExpandScalarImpl_ColMajorIN3pto4TileILNS0_8LocationE0EiLi16ELi64ELNS0_7BLayoutE1ELi16ELi64ELNS0_7SLayoutE0ELi512ELNS0_8PadValueE3EEEEvNT_9TileDTypeENS7_7int32_tE>
7000121e: 0800         	C.BSTART.STD	
70001220: 00001197     	lui	1, 	->a1
70001224: 10008215     	addi	sp, 256, 	->a2
70001228: 88011181     	BSTART.TMA	TLOAD, S32
7000122c: 19f01023     	B.DATR	NORM.normal, Null
70001230: 000de113     	B.IOT	[], last	->m<32KB>
70001234: 00320013     	B.IOR	[a2,a1],[]
70001238: 20000043     	B.DIM	zero, 512, 	->lb0
7000123c: 443c         	C.B.DIMI	16, 	->lb1
7000123e: 20002043     	B.DIM	zero, 512, 	->lb2
70001242: 02021181     	BSTART.VPAR	VS16
70001246: 02044893     	B.IOT	[m#1, t#1.reuse]	->u<4KB>
7000124a: 01085393     	B.IOT	[u#1], last
7000124e: 00010013     	B.IOR	[a0],[]
70001252: 043c         	C.B.DIMI	16, 	->lb0
70001254: 413c         	C.B.DIMI	4, 	->lb1
70001256: 00001f83     	B.TEXT	0x700012d4 <_Z20reducesum_row_kernelIN3pto4TileILNS0_8LocationE0EiLi16ELi512ELNS0_7BLayoutE0ELi16ELi512ELNS0_7SLayoutE0ELi512ELNS0_8PadValueE3EEENS1_ILS2_0EiLi16ELi64ELS3_1ELi16ELi64ELS4_0ELi512ELS5_3EEENS1_ILS2_0EiLi16ELi64ELS3_1ELi16ELi8ELS4_0ELi512ELS5_3EEEEvNT1_9TileDTypeENT_9TileDTypeENT0_9TileDTypeESA_m>
7000125a: 0800         	C.BSTART.STD	
7000125c: 80020215     	addi	a2, 2048, 	->a2
70001260: 88011181     	BSTART.TMA	TLOAD, S32
70001264: 19f01023     	B.DATR	NORM.normal, Null
70001268: 000de113     	B.IOT	[], last	->m<32KB>
7000126c: 00320013     	B.IOR	[a2,a1],[]
70001270: 20000043     	B.DIM	zero, 512, 	->lb0
70001274: 443c         	C.B.DIMI	16, 	->lb1
70001276: 20002043     	B.DIM	zero, 512, 	->lb2
7000127a: 0800         	C.BSTART.STD	
7000127c: 1856         	c.movi	1, 	->a1
7000127e: 02021181     	BSTART.VPAR	VS16
70001282: 02044013     	B.IOT	[m#1, t#1]	->t<4KB>
70001286: 01085393     	B.IOT	[u#1], last
7000128a: 00018013     	B.IOR	[a1],[]
7000128e: 043c         	C.B.DIMI	16, 	->lb0
70001290: 413c         	C.B.DIMI	4, 	->lb1
70001292: 00001083     	B.TEXT	0x700012d4 <_Z20reducesum_row_kernelIN3pto4TileILNS0_8LocationE0EiLi16ELi512ELNS0_7BLayoutE0ELi16ELi512ELNS0_7SLayoutE0ELi512ELNS0_8PadValueE3EEENS1_ILS2_0EiLi16ELi64ELS3_1ELi16ELi64ELS4_0ELi512ELS5_3EEENS1_ILS2_0EiLi16ELi64ELS3_1ELi16ELi8ELS4_0ELi512ELS5_3EEEEvNT1_9TileDTypeENT_9TileDTypeENT0_9TileDTypeESA_m>
70001296: 02021181     	BSTART.VPAR	VS16
7000129a: 000ad013     	B.IOT	[t#1], last	->t<512B>
7000129e: 043c         	C.B.DIMI	16, 	->lb0
700012a0: 00026903     	B.TEXT	0x70001c44 <_Z26reducesum_row_final_kernelIN3pto4TileILNS0_8LocationE0EiLi16ELi64ELNS0_7BLayoutE1ELi16ELi8ELNS0_7SLayoutE0ELi512ELNS0_8PadValueE3EEENS1_ILS2_0EiLi16ELi8ELS3_0ELi16ELi1ELS4_0ELi512ELS5_3EEEEvNT0_9TileDTypeENT_9TileDTypeE>
700012a4: 0800         	C.BSTART.STD	
700012a6: 1916         	c.movi	4, 	->a1
700012a8: 0c008215     	addi	sp, 192, 	->a2
700012ac: 88111181     	BSTART.TMA	TSTORE, S32
700012b0: 19f01023     	B.DATR	NORM.normal, Null
700012b4: 00085393     	B.IOT	[t#1], last
700012b8: 00320013     	B.IOR	[a2,a1],[]
700012bc: 007c         	C.B.DIMI	1, 	->lb0
700012be: 443c         	C.B.DIMI	16, 	->lb1
700012c0: 823c         	C.B.DIMI	8, 	->lb2
700012c2: 3800         	C.BSTART.STD	RET
700012c4: 00010f97     	lui	16, 	->t
700012c8: 100c0f95     	addi	t#1, 256, 	->t
700012cc: 01808085     	add	sp, t#1, 	->sp
700012d0: 029c         	c.setc.tgt	ra
700012d2: 0800         	C.BSTART.STD	

00000000700012d4 <_Z20reducesum_row_kernelIN3pto4TileILNS0_8LocationE0EiLi16ELi512ELNS0_7BLayoutE0ELi16ELi512ELNS0_7SLayoutE0ELi512ELNS0_8PadValueE3EEENS1_ILS2_0EiLi16ELi64ELS3_1ELi16ELi64ELS4_0ELi512ELS5_3EEENS1_ILS2_0EiLi16ELi64ELS3_1ELi16ELi8ELS4_0ELi512ELS5_3EEEEvNT1_9TileDTypeENT_9TileDTypeENT0_9TileDTypeESA_m>:
; _Z20reducesum_row_kernelIN3pto4TileILNS0_8LocationE0EiLi16ELi512ELNS0_7BLayoutE0ELi16ELi512ELNS0_7SLayoutE0ELi512ELNS0_8PadValueE3EEENS1_ILS2_0EiLi16ELi64ELS3_1ELi16ELi64ELS4_0ELi512ELS5_3EEENS1_ILS2_0EiLi16ELi64ELS3_1ELi16ELi8ELS4_0ELi512ELS5_3EEEEvNT1_9TileDTypeENT_9TileDTypeENT0_9TileDTypeESA_m():
700012d4: 000500ff 00727f95    	l.slli	lc1.uh, 7, 	->t.d
700012dc: 00a8807f 480c0005    	v.add	t#1.sd, lc0.uh<<9, 	->vt.d, nosat
700012e4: 0139007f 10080185    	v.add	ta, vt#1.reuse.sd<<2, 	->vn.d, nosat
700012ec: 0109427f 10082109    	v.lw.local	[ta, vt#1.sd<<2], 	->vm.w
700012f4: 0009c27f 001c2019    	v.lwi.local	[vn#1.reuse.sd, 4], 	->vt.w
700012fc: 0009c27f 002c2019    	v.lwi.local	[vn#1.reuse.sd, 8], 	->vt.w
70001304: 0009c27f 003c2019    	v.lwi.local	[vn#1.reuse.sd, 12], 	->vt.w
7000130c: 0009c27f 004c2099    	v.lwi.local	[vn#1.reuse.sd, 16], 	->vu.w
70001314: 0009c27f 005c2099    	v.lwi.local	[vn#1.reuse.sd, 20], 	->vu.w
7000131c: 0009c27f 006c2099    	v.lwi.local	[vn#1.reuse.sd, 24], 	->vu.w
70001324: 0009c27f 007c2119    	v.lwi.local	[vn#1.reuse.sd, 28], 	->vm.w
7000132c: 014a027f 01110005    	v.add	vt#3.sw, vm#2.sw, 	->vt.w, nosat
70001334: 014a027f 00200005    	v.add	vt#1.sw, vt#3.sw, 	->vt.w, nosat
7000133c: 014a027f 00200005    	v.add	vt#1.sw, vt#3.sw, 	->vt.w, nosat
70001344: 014a027f 00a00005    	v.add	vt#1.sw, vu#3.sw, 	->vt.w, nosat
7000134c: 014a027f 00900005    	v.add	vt#1.sw, vu#2.sw, 	->vt.w, nosat
70001354: 014a027f 00800005    	v.add	vt#1.sw, vu#1.sw, 	->vt.w, nosat
7000135c: 014a027f 01000005    	v.add	vt#1.sw, vm#1.sw, 	->vt.w, nosat
70001364: 00a900ff 50488f85    	l.add	tb, lc1.uh<<10, 	->t.d, nosat
7000136c: a0a9547f 0048a049    	v.sw.local	vt#1.sw, [tb, lc0<<2, lc1.uh<<10]
70001374: 0009c27f 008c2119    	v.lwi.local	[vn#1.reuse.sd, 32], 	->vm.w
7000137c: 0009c27f 009c2019    	v.lwi.local	[vn#1.reuse.sd, 36], 	->vt.w
70001384: 0009c27f 00ac2019    	v.lwi.local	[vn#1.reuse.sd, 40], 	->vt.w
7000138c: 0009c27f 00bc2019    	v.lwi.local	[vn#1.reuse.sd, 44], 	->vt.w
70001394: 0009c27f 00cc2099    	v.lwi.local	[vn#1.reuse.sd, 48], 	->vu.w
7000139c: 0009c27f 00dc2099    	v.lwi.local	[vn#1.reuse.sd, 52], 	->vu.w
700013a4: 0009c27f 00ec2099    	v.lwi.local	[vn#1.reuse.sd, 56], 	->vu.w
700013ac: 0009c27f 00fc2119    	v.lwi.local	[vn#1.reuse.sd, 60], 	->vm.w
700013b4: 014a027f 01110005    	v.add	vt#3.sw, vm#2.sw, 	->vt.w, nosat
700013bc: 014a027f 00200005    	v.add	vt#1.sw, vt#3.sw, 	->vt.w, nosat
700013c4: 014a027f 00200005    	v.add	vt#1.sw, vt#3.sw, 	->vt.w, nosat
700013cc: 014a027f 00a00005    	v.add	vt#1.sw, vu#3.sw, 	->vt.w, nosat
700013d4: 014a027f 00900005    	v.add	vt#1.sw, vu#2.sw, 	->vt.w, nosat
700013dc: 014a027f 00800005    	v.add	vt#1.sw, vu#1.sw, 	->vt.w, nosat
700013e4: 014a027f 01000005    	v.add	vt#1.sw, vm#1.sw, 	->vt.w, nosat
700013ec: 011a507f 21802059    	v.swi.local	vt#1.sw, [t#1.sd, lc0<<2, 64]
700013f4: 0009c27f 010c2119    	v.lwi.local	[vn#1.reuse.sd, 64], 	->vm.w
700013fc: 0009c27f 011c2019    	v.lwi.local	[vn#1.reuse.sd, 68], 	->vt.w
70001404: 0009c27f 012c2019    	v.lwi.local	[vn#1.reuse.sd, 72], 	->vt.w
7000140c: 0009c27f 013c2019    	v.lwi.local	[vn#1.reuse.sd, 76], 	->vt.w
70001414: 0009c27f 014c2099    	v.lwi.local	[vn#1.reuse.sd, 80], 	->vu.w
7000141c: 0009c27f 015c2099    	v.lwi.local	[vn#1.reuse.sd, 84], 	->vu.w
70001424: 0009c27f 016c2099    	v.lwi.local	[vn#1.reuse.sd, 88], 	->vu.w
7000142c: 0009c27f 017c2119    	v.lwi.local	[vn#1.reuse.sd, 92], 	->vm.w
70001434: 014a027f 01110005    	v.add	vt#3.sw, vm#2.sw, 	->vt.w, nosat
7000143c: 014a027f 00200005    	v.add	vt#1.sw, vt#3.sw, 	->vt.w, nosat
70001444: 014a027f 00200005    	v.add	vt#1.sw, vt#3.sw, 	->vt.w, nosat
7000144c: 014a027f 00a00005    	v.add	vt#1.sw, vu#3.sw, 	->vt.w, nosat
70001454: 014a027f 00900005    	v.add	vt#1.sw, vu#2.sw, 	->vt.w, nosat
7000145c: 014a027f 00800005    	v.add	vt#1.sw, vu#1.sw, 	->vt.w, nosat
70001464: 014a027f 01000005    	v.add	vt#1.sw, vm#1.sw, 	->vt.w, nosat
7000146c: 011a507f 41802059    	v.swi.local	vt#1.sw, [t#1.sd, lc0<<2, 128]
70001474: 0009c27f 018c2119    	v.lwi.local	[vn#1.reuse.sd, 96], 	->vm.w
7000147c: 0009c27f 019c2019    	v.lwi.local	[vn#1.reuse.sd, 100], 	->vt.w
70001484: 0009c27f 01ac2019    	v.lwi.local	[vn#1.reuse.sd, 104], 	->vt.w
7000148c: 0009c27f 01bc2019    	v.lwi.local	[vn#1.reuse.sd, 108], 	->vt.w
70001494: 0009c27f 01cc2099    	v.lwi.local	[vn#1.reuse.sd, 112], 	->vu.w
7000149c: 0009c27f 01dc2099    	v.lwi.local	[vn#1.reuse.sd, 116], 	->vu.w
700014a4: 0009c27f 01ec2099    	v.lwi.local	[vn#1.reuse.sd, 120], 	->vu.w
700014ac: 0009c27f 01fc2119    	v.lwi.local	[vn#1.reuse.sd, 124], 	->vm.w
700014b4: 014a027f 01110005    	v.add	vt#3.sw, vm#2.sw, 	->vt.w, nosat
700014bc: 014a027f 00200005    	v.add	vt#1.sw, vt#3.sw, 	->vt.w, nosat
700014c4: 014a027f 00200005    	v.add	vt#1.sw, vt#3.sw, 	->vt.w, nosat
700014cc: 014a027f 00a00005    	v.add	vt#1.sw, vu#3.sw, 	->vt.w, nosat
700014d4: 014a027f 00900005    	v.add	vt#1.sw, vu#2.sw, 	->vt.w, nosat
700014dc: 014a027f 00800005    	v.add	vt#1.sw, vu#1.sw, 	->vt.w, nosat
700014e4: 014a027f 01000005    	v.add	vt#1.sw, vm#1.sw, 	->vt.w, nosat
700014ec: 011a507f 61802059    	v.swi.local	vt#1.sw, [t#1.sd, lc0<<2, 192]
700014f4: 0009c27f 020c2119    	v.lwi.local	[vn#1.reuse.sd, 128], 	->vm.w
700014fc: 0009c27f 021c2019    	v.lwi.local	[vn#1.reuse.sd, 132], 	->vt.w
70001504: 0009c27f 022c2019    	v.lwi.local	[vn#1.reuse.sd, 136], 	->vt.w
7000150c: 0009c27f 023c2019    	v.lwi.local	[vn#1.reuse.sd, 140], 	->vt.w
70001514: 0009c27f 024c2099    	v.lwi.local	[vn#1.reuse.sd, 144], 	->vu.w
7000151c: 0009c27f 025c2099    	v.lwi.local	[vn#1.reuse.sd, 148], 	->vu.w
70001524: 0009c27f 026c2099    	v.lwi.local	[vn#1.reuse.sd, 152], 	->vu.w
7000152c: 0009c27f 027c2119    	v.lwi.local	[vn#1.reuse.sd, 156], 	->vm.w
70001534: 014a027f 01110005    	v.add	vt#3.sw, vm#2.sw, 	->vt.w, nosat
7000153c: 014a027f 00200005    	v.add	vt#1.sw, vt#3.sw, 	->vt.w, nosat
70001544: 014a027f 00200005    	v.add	vt#1.sw, vt#3.sw, 	->vt.w, nosat
7000154c: 014a027f 00a00005    	v.add	vt#1.sw, vu#3.sw, 	->vt.w, nosat
70001554: 014a027f 00900005    	v.add	vt#1.sw, vu#2.sw, 	->vt.w, nosat
7000155c: 014a027f 00800005    	v.add	vt#1.sw, vu#1.sw, 	->vt.w, nosat
70001564: 014a027f 01000005    	v.add	vt#1.sw, vm#1.sw, 	->vt.w, nosat
7000156c: 011a507f 81802059    	v.swi.local	vt#1.sw, [t#1.sd, lc0<<2, 256]
70001574: 0009c27f 028c2119    	v.lwi.local	[vn#1.reuse.sd, 160], 	->vm.w
7000157c: 0009c27f 029c2019    	v.lwi.local	[vn#1.reuse.sd, 164], 	->vt.w
70001584: 0009c27f 02ac2019    	v.lwi.local	[vn#1.reuse.sd, 168], 	->vt.w
7000158c: 0009c27f 02bc2019    	v.lwi.local	[vn#1.reuse.sd, 172], 	->vt.w
70001594: 0009c27f 02cc2099    	v.lwi.local	[vn#1.reuse.sd, 176], 	->vu.w
7000159c: 0009c27f 02dc2099    	v.lwi.local	[vn#1.reuse.sd, 180], 	->vu.w
700015a4: 0009c27f 02ec2099    	v.lwi.local	[vn#1.reuse.sd, 184], 	->vu.w
700015ac: 0009c27f 02fc2119    	v.lwi.local	[vn#1.reuse.sd, 188], 	->vm.w
700015b4: 014a027f 01110005    	v.add	vt#3.sw, vm#2.sw, 	->vt.w, nosat
700015bc: 014a027f 00200005    	v.add	vt#1.sw, vt#3.sw, 	->vt.w, nosat
700015c4: 014a027f 00200005    	v.add	vt#1.sw, vt#3.sw, 	->vt.w, nosat
700015cc: 014a027f 00a00005    	v.add	vt#1.sw, vu#3.sw, 	->vt.w, nosat
700015d4: 014a027f 00900005    	v.add	vt#1.sw, vu#2.sw, 	->vt.w, nosat
700015dc: 014a027f 00800005    	v.add	vt#1.sw, vu#1.sw, 	->vt.w, nosat
700015e4: 014a027f 01000005    	v.add	vt#1.sw, vm#1.sw, 	->vt.w, nosat
700015ec: 011a507f a1802059    	v.swi.local	vt#1.sw, [t#1.sd, lc0<<2, 320]
700015f4: 0009c27f 030c2119    	v.lwi.local	[vn#1.reuse.sd, 192], 	->vm.w
700015fc: 0009c27f 031c2019    	v.lwi.local	[vn#1.reuse.sd, 196], 	->vt.w
70001604: 0009c27f 032c2019    	v.lwi.local	[vn#1.reuse.sd, 200], 	->vt.w
7000160c: 0009c27f 033c2019    	v.lwi.local	[vn#1.reuse.sd, 204], 	->vt.w
70001614: 0009c27f 034c2099    	v.lwi.local	[vn#1.reuse.sd, 208], 	->vu.w
7000161c: 0009c27f 035c2099    	v.lwi.local	[vn#1.reuse.sd, 212], 	->vu.w
70001624: 0009c27f 036c2099    	v.lwi.local	[vn#1.reuse.sd, 216], 	->vu.w
7000162c: 0009c27f 037c2119    	v.lwi.local	[vn#1.reuse.sd, 220], 	->vm.w
70001634: 014a027f 01110005    	v.add	vt#3.sw, vm#2.sw, 	->vt.w, nosat
7000163c: 014a027f 00200005    	v.add	vt#1.sw, vt#3.sw, 	->vt.w, nosat
70001644: 014a027f 00200005    	v.add	vt#1.sw, vt#3.sw, 	->vt.w, nosat
7000164c: 014a027f 00a00005    	v.add	vt#1.sw, vu#3.sw, 	->vt.w, nosat
70001654: 014a027f 00900005    	v.add	vt#1.sw, vu#2.sw, 	->vt.w, nosat
7000165c: 014a027f 00800005    	v.add	vt#1.sw, vu#1.sw, 	->vt.w, nosat
70001664: 014a027f 01000005    	v.add	vt#1.sw, vm#1.sw, 	->vt.w, nosat
7000166c: 011a507f c1802059    	v.swi.local	vt#1.sw, [t#1.sd, lc0<<2, 384]
70001674: 0009c27f 038c2119    	v.lwi.local	[vn#1.reuse.sd, 224], 	->vm.w
7000167c: 0009c27f 039c2019    	v.lwi.local	[vn#1.reuse.sd, 228], 	->vt.w
70001684: 0009c27f 03ac2019    	v.lwi.local	[vn#1.reuse.sd, 232], 	->vt.w
7000168c: 0009c27f 03bc2019    	v.lwi.local	[vn#1.reuse.sd, 236], 	->vt.w
70001694: 0009c27f 03cc2099    	v.lwi.local	[vn#1.reuse.sd, 240], 	->vu.w
7000169c: 0009c27f 03dc2099    	v.lwi.local	[vn#1.reuse.sd, 244], 	->vu.w
700016a4: 0009c27f 03ec2099    	v.lwi.local	[vn#1.reuse.sd, 248], 	->vu.w
700016ac: 0009c27f 03fc2119    	v.lwi.local	[vn#1.reuse.sd, 252], 	->vm.w
700016b4: 014a027f 01110005    	v.add	vt#3.sw, vm#2.sw, 	->vt.w, nosat
700016bc: 014a027f 00200005    	v.add	vt#1.sw, vt#3.sw, 	->vt.w, nosat
700016c4: 014a027f 00200005    	v.add	vt#1.sw, vt#3.sw, 	->vt.w, nosat
700016cc: 014a027f 00a00005    	v.add	vt#1.sw, vu#3.sw, 	->vt.w, nosat
700016d4: 014a027f 00900005    	v.add	vt#1.sw, vu#2.sw, 	->vt.w, nosat
700016dc: 014a027f 00800005    	v.add	vt#1.sw, vu#1.sw, 	->vt.w, nosat
700016e4: 014a027f 01000005    	v.add	vt#1.sw, vm#1.sw, 	->vt.w, nosat
700016ec: 011a507f e1802059    	v.swi.local	vt#1.sw, [t#1.sd, lc0<<2, 448]
700016f4: 0009c27f 040c2119    	v.lwi.local	[vn#1.reuse.sd, 256], 	->vm.w
700016fc: 0009c27f 041c2019    	v.lwi.local	[vn#1.reuse.sd, 260], 	->vt.w
70001704: 0009c27f 042c2019    	v.lwi.local	[vn#1.reuse.sd, 264], 	->vt.w
7000170c: 0009c27f 043c2019    	v.lwi.local	[vn#1.reuse.sd, 268], 	->vt.w
70001714: 0009c27f 044c2099    	v.lwi.local	[vn#1.reuse.sd, 272], 	->vu.w
7000171c: 0009c27f 045c2099    	v.lwi.local	[vn#1.reuse.sd, 276], 	->vu.w
70001724: 0009c27f 046c2099    	v.lwi.local	[vn#1.reuse.sd, 280], 	->vu.w
7000172c: 0009c27f 047c2119    	v.lwi.local	[vn#1.reuse.sd, 284], 	->vm.w
70001734: 014a027f 01110005    	v.add	vt#3.sw, vm#2.sw, 	->vt.w, nosat
7000173c: 014a027f 00200005    	v.add	vt#1.sw, vt#3.sw, 	->vt.w, nosat
70001744: 014a027f 00200005    	v.add	vt#1.sw, vt#3.sw, 	->vt.w, nosat
7000174c: 014a027f 00a00005    	v.add	vt#1.sw, vu#3.sw, 	->vt.w, nosat
70001754: 014a027f 00900005    	v.add	vt#1.sw, vu#2.sw, 	->vt.w, nosat
7000175c: 014a027f 00800005    	v.add	vt#1.sw, vu#1.sw, 	->vt.w, nosat
70001764: 014a027f 01000005    	v.add	vt#1.sw, vm#1.sw, 	->vt.w, nosat
7000176c: 011a507f 018020d9    	v.swi.local	vt#1.sw, [t#1.sd, lc0<<2, 512]
70001774: 0009c27f 048c2119    	v.lwi.local	[vn#1.reuse.sd, 288], 	->vm.w
7000177c: 0009c27f 049c2019    	v.lwi.local	[vn#1.reuse.sd, 292], 	->vt.w
70001784: 0009c27f 04ac2019    	v.lwi.local	[vn#1.reuse.sd, 296], 	->vt.w
7000178c: 0009c27f 04bc2019    	v.lwi.local	[vn#1.reuse.sd, 300], 	->vt.w
70001794: 0009c27f 04cc2099    	v.lwi.local	[vn#1.reuse.sd, 304], 	->vu.w
7000179c: 0009c27f 04dc2099    	v.lwi.local	[vn#1.reuse.sd, 308], 	->vu.w
700017a4: 0009c27f 04ec2099    	v.lwi.local	[vn#1.reuse.sd, 312], 	->vu.w
700017ac: 0009c27f 04fc2119    	v.lwi.local	[vn#1.reuse.sd, 316], 	->vm.w
700017b4: 014a027f 01110005    	v.add	vt#3.sw, vm#2.sw, 	->vt.w, nosat
700017bc: 014a027f 00200005    	v.add	vt#1.sw, vt#3.sw, 	->vt.w, nosat
700017c4: 014a027f 00200005    	v.add	vt#1.sw, vt#3.sw, 	->vt.w, nosat
700017cc: 014a027f 00a00005    	v.add	vt#1.sw, vu#3.sw, 	->vt.w, nosat
700017d4: 014a027f 00900005    	v.add	vt#1.sw, vu#2.sw, 	->vt.w, nosat
700017dc: 014a027f 00800005    	v.add	vt#1.sw, vu#1.sw, 	->vt.w, nosat
700017e4: 014a027f 01000005    	v.add	vt#1.sw, vm#1.sw, 	->vt.w, nosat
700017ec: 011a507f 218020d9    	v.swi.local	vt#1.sw, [t#1.sd, lc0<<2, 576]
700017f4: 0009c27f 050c2119    	v.lwi.local	[vn#1.reuse.sd, 320], 	->vm.w
700017fc: 0009c27f 051c2019    	v.lwi.local	[vn#1.reuse.sd, 324], 	->vt.w
70001804: 0009c27f 052c2019    	v.lwi.local	[vn#1.reuse.sd, 328], 	->vt.w
7000180c: 0009c27f 053c2019    	v.lwi.local	[vn#1.reuse.sd, 332], 	->vt.w
70001814: 0009c27f 054c2099    	v.lwi.local	[vn#1.reuse.sd, 336], 	->vu.w
7000181c: 0009c27f 055c2099    	v.lwi.local	[vn#1.reuse.sd, 340], 	->vu.w
70001824: 0009c27f 056c2099    	v.lwi.local	[vn#1.reuse.sd, 344], 	->vu.w
7000182c: 0009c27f 057c2119    	v.lwi.local	[vn#1.reuse.sd, 348], 	->vm.w
70001834: 014a027f 01110005    	v.add	vt#3.sw, vm#2.sw, 	->vt.w, nosat
7000183c: 014a027f 00200005    	v.add	vt#1.sw, vt#3.sw, 	->vt.w, nosat
70001844: 014a027f 00200005    	v.add	vt#1.sw, vt#3.sw, 	->vt.w, nosat
7000184c: 014a027f 00a00005    	v.add	vt#1.sw, vu#3.sw, 	->vt.w, nosat
70001854: 014a027f 00900005    	v.add	vt#1.sw, vu#2.sw, 	->vt.w, nosat
7000185c: 014a027f 00800005    	v.add	vt#1.sw, vu#1.sw, 	->vt.w, nosat
70001864: 014a027f 01000005    	v.add	vt#1.sw, vm#1.sw, 	->vt.w, nosat
7000186c: 011a507f 418020d9    	v.swi.local	vt#1.sw, [t#1.sd, lc0<<2, 640]
70001874: 0009c27f 058c2119    	v.lwi.local	[vn#1.reuse.sd, 352], 	->vm.w
7000187c: 0009c27f 059c2019    	v.lwi.local	[vn#1.reuse.sd, 356], 	->vt.w
70001884: 0009c27f 05ac2019    	v.lwi.local	[vn#1.reuse.sd, 360], 	->vt.w
7000188c: 0009c27f 05bc2019    	v.lwi.local	[vn#1.reuse.sd, 364], 	->vt.w
70001894: 0009c27f 05cc2099    	v.lwi.local	[vn#1.reuse.sd, 368], 	->vu.w
7000189c: 0009c27f 05dc2099    	v.lwi.local	[vn#1.reuse.sd, 372], 	->vu.w
700018a4: 0009c27f 05ec2099    	v.lwi.local	[vn#1.reuse.sd, 376], 	->vu.w
700018ac: 0009c27f 05fc2119    	v.lwi.local	[vn#1.reuse.sd, 380], 	->vm.w
700018b4: 014a027f 01110005    	v.add	vt#3.sw, vm#2.sw, 	->vt.w, nosat
700018bc: 014a027f 00200005    	v.add	vt#1.sw, vt#3.sw, 	->vt.w, nosat
700018c4: 014a027f 00200005    	v.add	vt#1.sw, vt#3.sw, 	->vt.w, nosat
700018cc: 014a027f 00a00005    	v.add	vt#1.sw, vu#3.sw, 	->vt.w, nosat
700018d4: 014a027f 00900005    	v.add	vt#1.sw, vu#2.sw, 	->vt.w, nosat
700018dc: 014a027f 00800005    	v.add	vt#1.sw, vu#1.sw, 	->vt.w, nosat
700018e4: 014a027f 01000005    	v.add	vt#1.sw, vm#1.sw, 	->vt.w, nosat
700018ec: 011a507f 618020d9    	v.swi.local	vt#1.sw, [t#1.sd, lc0<<2, 704]
700018f4: 0009c27f 060c2119    	v.lwi.local	[vn#1.reuse.sd, 384], 	->vm.w
700018fc: 0009c27f 061c2019    	v.lwi.local	[vn#1.reuse.sd, 388], 	->vt.w
70001904: 0009c27f 062c2019    	v.lwi.local	[vn#1.reuse.sd, 392], 	->vt.w
7000190c: 0009c27f 063c2019    	v.lwi.local	[vn#1.reuse.sd, 396], 	->vt.w
70001914: 0009c27f 064c2099    	v.lwi.local	[vn#1.reuse.sd, 400], 	->vu.w
7000191c: 0009c27f 065c2099    	v.lwi.local	[vn#1.reuse.sd, 404], 	->vu.w
70001924: 0009c27f 066c2099    	v.lwi.local	[vn#1.reuse.sd, 408], 	->vu.w
7000192c: 0009c27f 067c2119    	v.lwi.local	[vn#1.reuse.sd, 412], 	->vm.w
70001934: 014a027f 01110005    	v.add	vt#3.sw, vm#2.sw, 	->vt.w, nosat
7000193c: 014a027f 00200005    	v.add	vt#1.sw, vt#3.sw, 	->vt.w, nosat
70001944: 014a027f 00200005    	v.add	vt#1.sw, vt#3.sw, 	->vt.w, nosat
7000194c: 014a027f 00a00005    	v.add	vt#1.sw, vu#3.sw, 	->vt.w, nosat
70001954: 014a027f 00900005    	v.add	vt#1.sw, vu#2.sw, 	->vt.w, nosat
7000195c: 014a027f 00800005    	v.add	vt#1.sw, vu#1.sw, 	->vt.w, nosat
70001964: 014a027f 01000005    	v.add	vt#1.sw, vm#1.sw, 	->vt.w, nosat
7000196c: 011a507f 818020d9    	v.swi.local	vt#1.sw, [t#1.sd, lc0<<2, 768]
70001974: 0009c27f 068c2119    	v.lwi.local	[vn#1.reuse.sd, 416], 	->vm.w
7000197c: 0009c27f 069c2019    	v.lwi.local	[vn#1.reuse.sd, 420], 	->vt.w
70001984: 0009c27f 06ac2019    	v.lwi.local	[vn#1.reuse.sd, 424], 	->vt.w
7000198c: 0009c27f 06bc2019    	v.lwi.local	[vn#1.reuse.sd, 428], 	->vt.w
70001994: 0009c27f 06cc2099    	v.lwi.local	[vn#1.reuse.sd, 432], 	->vu.w
7000199c: 0009c27f 06dc2099    	v.lwi.local	[vn#1.reuse.sd, 436], 	->vu.w
700019a4: 0009c27f 06ec2099    	v.lwi.local	[vn#1.reuse.sd, 440], 	->vu.w
700019ac: 0009c27f 06fc2119    	v.lwi.local	[vn#1.reuse.sd, 444], 	->vm.w
700019b4: 014a027f 01110005    	v.add	vt#3.sw, vm#2.sw, 	->vt.w, nosat
700019bc: 014a027f 00200005    	v.add	vt#1.sw, vt#3.sw, 	->vt.w, nosat
700019c4: 014a027f 00200005    	v.add	vt#1.sw, vt#3.sw, 	->vt.w, nosat
700019cc: 014a027f 00a00005    	v.add	vt#1.sw, vu#3.sw, 	->vt.w, nosat
700019d4: 014a027f 00900005    	v.add	vt#1.sw, vu#2.sw, 	->vt.w, nosat
700019dc: 014a027f 00800005    	v.add	vt#1.sw, vu#1.sw, 	->vt.w, nosat
700019e4: 014a027f 01000005    	v.add	vt#1.sw, vm#1.sw, 	->vt.w, nosat
700019ec: 011a507f a18020d9    	v.swi.local	vt#1.sw, [t#1.sd, lc0<<2, 832]
700019f4: 0009c27f 070c2119    	v.lwi.local	[vn#1.reuse.sd, 448], 	->vm.w
700019fc: 0009c27f 071c2019    	v.lwi.local	[vn#1.reuse.sd, 452], 	->vt.w
70001a04: 0009c27f 072c2019    	v.lwi.local	[vn#1.reuse.sd, 456], 	->vt.w
70001a0c: 0009c27f 073c2019    	v.lwi.local	[vn#1.reuse.sd, 460], 	->vt.w
70001a14: 0009c27f 074c2099    	v.lwi.local	[vn#1.reuse.sd, 464], 	->vu.w
70001a1c: 0009c27f 075c2099    	v.lwi.local	[vn#1.reuse.sd, 468], 	->vu.w
70001a24: 0009c27f 076c2099    	v.lwi.local	[vn#1.reuse.sd, 472], 	->vu.w
70001a2c: 0009c27f 077c2119    	v.lwi.local	[vn#1.reuse.sd, 476], 	->vm.w
70001a34: 014a027f 01110005    	v.add	vt#3.sw, vm#2.sw, 	->vt.w, nosat
70001a3c: 014a027f 00200005    	v.add	vt#1.sw, vt#3.sw, 	->vt.w, nosat
70001a44: 014a027f 00200005    	v.add	vt#1.sw, vt#3.sw, 	->vt.w, nosat
70001a4c: 014a027f 00a00005    	v.add	vt#1.sw, vu#3.sw, 	->vt.w, nosat
70001a54: 014a027f 00900005    	v.add	vt#1.sw, vu#2.sw, 	->vt.w, nosat
70001a5c: 014a027f 00800005    	v.add	vt#1.sw, vu#1.sw, 	->vt.w, nosat
70001a64: 014a027f 01000185    	v.add	vt#1.sw, vm#1.sw, 	->vn.w, nosat
70001a6c: 011bd07f c18c20d9    	v.swi.local	vn#1.reuse.sw, [t#1.sd, lc0<<2, 896]
70001a74: 0009c27f 078ca119    	v.lwi.local	[vn#2.reuse.sd, 480], 	->vm.w
70001a7c: 0009c27f 079ca019    	v.lwi.local	[vn#2.reuse.sd, 484], 	->vt.w
70001a84: 0009c27f 07aca019    	v.lwi.local	[vn#2.reuse.sd, 488], 	->vt.w
70001a8c: 0009c27f 07bca019    	v.lwi.local	[vn#2.reuse.sd, 492], 	->vt.w
70001a94: 0009c27f 07cca099    	v.lwi.local	[vn#2.reuse.sd, 496], 	->vu.w
70001a9c: 0009c27f 07dca099    	v.lwi.local	[vn#2.reuse.sd, 500], 	->vu.w
70001aa4: 0009c27f 07eca099    	v.lwi.local	[vn#2.reuse.sd, 504], 	->vu.w
70001aac: 0008427f 07fca119    	v.lwi.local	[vn#2.sd, 508], 	->vm.w
70001ab4: 014a027f 01110005    	v.add	vt#3.sw, vm#2.sw, 	->vt.w, nosat
70001abc: 014a027f 00200005    	v.add	vt#1.sw, vt#3.sw, 	->vt.w, nosat
70001ac4: 014a027f 00200005    	v.add	vt#1.sw, vt#3.sw, 	->vt.w, nosat
70001acc: 014a027f 00a00005    	v.add	vt#1.sw, vu#3.sw, 	->vt.w, nosat
70001ad4: 014a027f 00900005    	v.add	vt#1.sw, vu#2.sw, 	->vt.w, nosat
70001adc: 014a027f 00800005    	v.add	vt#1.sw, vu#1.sw, 	->vt.w, nosat
70001ae4: 014a027f 01000185    	v.add	vt#1.sw, vm#1.sw, 	->vn.w, nosat
70001aec: 011bd07f e18c20d9    	v.swi.local	vn#1.reuse.sw, [t#1.sd, lc0<<2, 960]
70001af4: 00a9527f 5048a109    	v.lw.local	[tb, lc0<<2, lc1.uh<<10], 	->vm.w
70001afc: 0008d27f 010c2019    	v.lwi.local	[t#1.sd, lc0<<2, 64], 	->vt.w
70001b04: 0008d27f 020c2019    	v.lwi.local	[t#1.sd, lc0<<2, 128], 	->vt.w
70001b0c: 0008d27f 030c2019    	v.lwi.local	[t#1.sd, lc0<<2, 192], 	->vt.w
70001b14: 0008d27f 040c2099    	v.lwi.local	[t#1.sd, lc0<<2, 256], 	->vu.w
70001b1c: 0008d27f 050c2099    	v.lwi.local	[t#1.sd, lc0<<2, 320], 	->vu.w
70001b24: 0008d27f 060c2099    	v.lwi.local	[t#1.sd, lc0<<2, 384], 	->vu.w
70001b2c: 0008d27f 070c2119    	v.lwi.local	[t#1.sd, lc0<<2, 448], 	->vm.w
70001b34: 014a027f 01110005    	v.add	vt#3.sw, vm#2.sw, 	->vt.w, nosat
70001b3c: 014a027f 00200005    	v.add	vt#1.sw, vt#3.sw, 	->vt.w, nosat
70001b44: 014a027f 00200005    	v.add	vt#1.sw, vt#3.sw, 	->vt.w, nosat
70001b4c: 014a027f 00a00005    	v.add	vt#1.sw, vu#3.sw, 	->vt.w, nosat
70001b54: 014a027f 00900005    	v.add	vt#1.sw, vu#2.sw, 	->vt.w, nosat
70001b5c: 014a027f 00800005    	v.add	vt#1.sw, vu#1.sw, 	->vt.w, nosat
70001b64: 014a027f 01000105    	v.add	vt#1.sw, vm#1.sw, 	->vm.w, nosat
70001b6c: 0008d27f 080c2019    	v.lwi.local	[t#1.sd, lc0<<2, 512], 	->vt.w
70001b74: 0008d27f 090c2019    	v.lwi.local	[t#1.sd, lc0<<2, 576], 	->vt.w
70001b7c: 0008d27f 0a0c2099    	v.lwi.local	[t#1.sd, lc0<<2, 640], 	->vu.w
70001b84: 0008d27f 0b0c2099    	v.lwi.local	[t#1.sd, lc0<<2, 704], 	->vu.w
70001b8c: 0008d27f 0c0c2099    	v.lwi.local	[t#1.sd, lc0<<2, 768], 	->vu.w
70001b94: 0008d27f 0d0c2119    	v.lwi.local	[t#1.sd, lc0<<2, 832], 	->vm.w
70001b9c: 014a027f 00100005    	v.add	vt#1.sw, vt#2.sw, 	->vt.w, nosat
70001ba4: 014a027f 00a00005    	v.add	vt#1.sw, vu#3.sw, 	->vt.w, nosat
70001bac: 014a027f 00900005    	v.add	vt#1.sw, vu#2.sw, 	->vt.w, nosat
70001bb4: 014a027f 00800005    	v.add	vt#1.sw, vu#1.sw, 	->vt.w, nosat
70001bbc: 014a027f 01000005    	v.add	vt#1.sw, vm#1.sw, 	->vt.w, nosat
70001bc4: 014a027f 01900005    	v.add	vt#1.sw, vn#2.sw, 	->vt.w, nosat
70001bcc: 014a027f 01800005    	v.add	vt#1.sw, vn#1.sw, 	->vt.w, nosat
70001bd4: 011bd07f 018020d9    	v.swi.local	vt#1.reuse.sw, [t#1.sd, lc0<<2, 512]
70001bdc: 014a027f 01100005    	v.add	vt#1.sw, vm#2.sw, 	->vt.w, nosat
70001be4: a0a9547f 0048a049    	v.sw.local	vt#1.sw, [tb, lc0<<2, lc1.uh<<10]
70001bec: 00a900ff 38490f85    	l.add	tc, lc1.uh<<7, 	->t.d, nosat
70001bf4: 00a9527f 38492009    	v.lw.local	[tc, lc0<<2, lc1.uh<<7], 	->vt.w
70001bfc: 00a900ff 384c0f85    	l.add	to, lc1.uh<<7, 	->t.d, nosat
70001c04: a0a952ff 004c2049    	v.sw.local	vt#1.sw, [to, lc0<<2, lc1.uh<<7]
70001c0c: 0008d27f 010ca019    	v.lwi.local	[t#2.sd, lc0<<2, 64], 	->vt.w
70001c14: 011a507f 21802059    	v.swi.local	vt#1.sw, [t#1.sd, lc0<<2, 64]
70001c1c: 000880ff 00407f95    	l.slli	ri0.sd, 4, 	->t.d
70001c24: 00a880ff 284c0f85    	l.add	t#1.sd, lc1.uh<<5, 	->t.d, nosat
70001c2c: 00a9527f 5048a009    	v.lw.local	[tb, lc0<<2, lc1.uh<<10], 	->vt.w
70001c34: a119507f 018c2049    	v.sw.local	vt#1.sw, [to, lc0<<2, t#1.sd<<2]
70001c3c: 0000000f 00000001    	L.BSTOP

0000000070001c44 <_Z26reducesum_row_final_kernelIN3pto4TileILNS0_8LocationE0EiLi16ELi64ELNS0_7BLayoutE1ELi16ELi8ELNS0_7SLayoutE0ELi512ELNS0_8PadValueE3EEENS1_ILS2_0EiLi16ELi8ELS3_0ELi16ELi1ELS4_0ELi512ELS5_3EEEEvNT0_9TileDTypeENT_9TileDTypeE>:
; _Z26reducesum_row_final_kernelIN3pto4TileILNS0_8LocationE0EiLi16ELi64ELNS0_7BLayoutE1ELi16ELi8ELNS0_7SLayoutE0ELi512ELNS0_8PadValueE3EEENS1_ILS2_0EiLi16ELi8ELS3_0ELi16ELi1ELS4_0ELi512ELS5_3EEEEvNT0_9TileDTypeENT_9TileDTypeE():
70001c44: 0129527f 01f82109    	v.lw.local	[ta, lc0<<2, zero.sd], 	->vm.w
70001c4c: 0009527f 01082019    	v.lwi.local	[ta, lc0<<2, 64], 	->vt.w
70001c54: 0009527f 02082019    	v.lwi.local	[ta, lc0<<2, 128], 	->vt.w
70001c5c: 0009527f 03082019    	v.lwi.local	[ta, lc0<<2, 192], 	->vt.w
70001c64: 0009527f 04082099    	v.lwi.local	[ta, lc0<<2, 256], 	->vu.w
70001c6c: 0009527f 05082099    	v.lwi.local	[ta, lc0<<2, 320], 	->vu.w
70001c74: 0009527f 06082099    	v.lwi.local	[ta, lc0<<2, 384], 	->vu.w
70001c7c: 0009527f 07082119    	v.lwi.local	[ta, lc0<<2, 448], 	->vm.w
70001c84: 014a027f 01110005    	v.add	vt#3.sw, vm#2.sw, 	->vt.w, nosat
70001c8c: 014a027f 00200005    	v.add	vt#1.sw, vt#3.sw, 	->vt.w, nosat
70001c94: 014a027f 00200005    	v.add	vt#1.sw, vt#3.sw, 	->vt.w, nosat
70001c9c: 014a027f 00a00005    	v.add	vt#1.sw, vu#3.sw, 	->vt.w, nosat
70001ca4: 014a027f 00900005    	v.add	vt#1.sw, vu#2.sw, 	->vt.w, nosat
70001cac: 014a027f 00800005    	v.add	vt#1.sw, vu#1.sw, 	->vt.w, nosat
70001cb4: 014a027f 01000005    	v.add	vt#1.sw, vm#1.sw, 	->vt.w, nosat
70001cbc: a129507f 01f82049    	v.sw.local	vt#1.sw, [ta, lc0<<2, zero.sd<<2]
70001cc4: 0009527f 08082119    	v.lwi.local	[ta, lc0<<2, 512], 	->vm.w
70001ccc: 0009527f 09082019    	v.lwi.local	[ta, lc0<<2, 576], 	->vt.w
70001cd4: 0009527f 0a082019    	v.lwi.local	[ta, lc0<<2, 640], 	->vt.w
70001cdc: 0009527f 0b082019    	v.lwi.local	[ta, lc0<<2, 704], 	->vt.w
70001ce4: 0009527f 0c082099    	v.lwi.local	[ta, lc0<<2, 768], 	->vu.w
70001cec: 0009527f 0d082099    	v.lwi.local	[ta, lc0<<2, 832], 	->vu.w
70001cf4: 0009527f 0e082099    	v.lwi.local	[ta, lc0<<2, 896], 	->vu.w
70001cfc: 0009527f 0f082119    	v.lwi.local	[ta, lc0<<2, 960], 	->vm.w
70001d04: 014a027f 01110005    	v.add	vt#3.sw, vm#2.sw, 	->vt.w, nosat
70001d0c: 014a027f 00200005    	v.add	vt#1.sw, vt#3.sw, 	->vt.w, nosat
70001d14: 014a027f 00200005    	v.add	vt#1.sw, vt#3.sw, 	->vt.w, nosat
70001d1c: 014a027f 00a00005    	v.add	vt#1.sw, vu#3.sw, 	->vt.w, nosat
70001d24: 014a027f 00900005    	v.add	vt#1.sw, vu#2.sw, 	->vt.w, nosat
70001d2c: 014a027f 00800005    	v.add	vt#1.sw, vu#1.sw, 	->vt.w, nosat
70001d34: 014a027f 01000005    	v.add	vt#1.sw, vm#1.sw, 	->vt.w, nosat
70001d3c: 012a507f 010020d9    	v.swi.local	vt#1.sw, [ta, lc0<<2, 512]
70001d44: 0009527f 10082119    	v.lwi.local	[ta, lc0<<2, 1024], 	->vm.w
70001d4c: 0009527f 11082019    	v.lwi.local	[ta, lc0<<2, 1088], 	->vt.w
70001d54: 0009527f 12082019    	v.lwi.local	[ta, lc0<<2, 1152], 	->vt.w
70001d5c: 0009527f 13082019    	v.lwi.local	[ta, lc0<<2, 1216], 	->vt.w
70001d64: 0009527f 14082099    	v.lwi.local	[ta, lc0<<2, 1280], 	->vu.w
70001d6c: 0009527f 15082099    	v.lwi.local	[ta, lc0<<2, 1344], 	->vu.w
70001d74: 0009527f 16082099    	v.lwi.local	[ta, lc0<<2, 1408], 	->vu.w
70001d7c: 0009527f 17082119    	v.lwi.local	[ta, lc0<<2, 1472], 	->vm.w
70001d84: 014a027f 01110005    	v.add	vt#3.sw, vm#2.sw, 	->vt.w, nosat
70001d8c: 014a027f 00200005    	v.add	vt#1.sw, vt#3.sw, 	->vt.w, nosat
70001d94: 014a027f 00200005    	v.add	vt#1.sw, vt#3.sw, 	->vt.w, nosat
70001d9c: 014a027f 00a00005    	v.add	vt#1.sw, vu#3.sw, 	->vt.w, nosat
70001da4: 014a027f 00900005    	v.add	vt#1.sw, vu#2.sw, 	->vt.w, nosat
70001dac: 014a027f 00800005    	v.add	vt#1.sw, vu#1.sw, 	->vt.w, nosat
70001db4: 014a027f 01000005    	v.add	vt#1.sw, vm#1.sw, 	->vt.w, nosat
70001dbc: 012a507f 01002159    	v.swi.local	vt#1.sw, [ta, lc0<<2, 1024]
70001dc4: 0009527f 18082119    	v.lwi.local	[ta, lc0<<2, 1536], 	->vm.w
70001dcc: 0009527f 19082019    	v.lwi.local	[ta, lc0<<2, 1600], 	->vt.w
70001dd4: 0009527f 1a082019    	v.lwi.local	[ta, lc0<<2, 1664], 	->vt.w
70001ddc: 0009527f 1b082019    	v.lwi.local	[ta, lc0<<2, 1728], 	->vt.w
70001de4: 0009527f 1c082099    	v.lwi.local	[ta, lc0<<2, 1792], 	->vu.w
70001dec: 0009527f 1d082099    	v.lwi.local	[ta, lc0<<2, 1856], 	->vu.w
70001df4: 0009527f 1e082099    	v.lwi.local	[ta, lc0<<2, 1920], 	->vu.w
70001dfc: 0009527f 1f082119    	v.lwi.local	[ta, lc0<<2, 1984], 	->vm.w
70001e04: 014a027f 01110005    	v.add	vt#3.sw, vm#2.sw, 	->vt.w, nosat
70001e0c: 014a027f 00200005    	v.add	vt#1.sw, vt#3.sw, 	->vt.w, nosat
70001e14: 014a027f 00200005    	v.add	vt#1.sw, vt#3.sw, 	->vt.w, nosat
70001e1c: 014a027f 00a00005    	v.add	vt#1.sw, vu#3.sw, 	->vt.w, nosat
70001e24: 014a027f 00900005    	v.add	vt#1.sw, vu#2.sw, 	->vt.w, nosat
70001e2c: 014a027f 00800005    	v.add	vt#1.sw, vu#1.sw, 	->vt.w, nosat
70001e34: 014a027f 01000005    	v.add	vt#1.sw, vm#1.sw, 	->vt.w, nosat
70001e3c: 012a507f 010021d9    	v.swi.local	vt#1.sw, [ta, lc0<<2, 1536]
70001e44: 0009527f 20082119    	v.lwi.local	[ta, lc0<<2, 2048], 	->vm.w
70001e4c: 0009527f 21082019    	v.lwi.local	[ta, lc0<<2, 2112], 	->vt.w
70001e54: 0009527f 22082019    	v.lwi.local	[ta, lc0<<2, 2176], 	->vt.w
70001e5c: 0009527f 23082019    	v.lwi.local	[ta, lc0<<2, 2240], 	->vt.w
70001e64: 0009527f 24082099    	v.lwi.local	[ta, lc0<<2, 2304], 	->vu.w
70001e6c: 0009527f 25082099    	v.lwi.local	[ta, lc0<<2, 2368], 	->vu.w
70001e74: 0009527f 26082099    	v.lwi.local	[ta, lc0<<2, 2432], 	->vu.w
70001e7c: 0009527f 27082119    	v.lwi.local	[ta, lc0<<2, 2496], 	->vm.w
70001e84: 014a027f 01110005    	v.add	vt#3.sw, vm#2.sw, 	->vt.w, nosat
70001e8c: 014a027f 00200005    	v.add	vt#1.sw, vt#3.sw, 	->vt.w, nosat
70001e94: 014a027f 00200005    	v.add	vt#1.sw, vt#3.sw, 	->vt.w, nosat
70001e9c: 014a027f 00a00005    	v.add	vt#1.sw, vu#3.sw, 	->vt.w, nosat
70001ea4: 014a027f 00900005    	v.add	vt#1.sw, vu#2.sw, 	->vt.w, nosat
70001eac: 014a027f 00800005    	v.add	vt#1.sw, vu#1.sw, 	->vt.w, nosat
70001eb4: 014a027f 01000005    	v.add	vt#1.sw, vm#1.sw, 	->vt.w, nosat
70001ebc: 012a507f 01002259    	v.swi.local	vt#1.sw, [ta, lc0<<2, 2048]
70001ec4: 0009527f 28082119    	v.lwi.local	[ta, lc0<<2, 2560], 	->vm.w
70001ecc: 0009527f 29082019    	v.lwi.local	[ta, lc0<<2, 2624], 	->vt.w
70001ed4: 0009527f 2a082019    	v.lwi.local	[ta, lc0<<2, 2688], 	->vt.w
70001edc: 0009527f 2b082019    	v.lwi.local	[ta, lc0<<2, 2752], 	->vt.w
70001ee4: 0009527f 2c082099    	v.lwi.local	[ta, lc0<<2, 2816], 	->vu.w
70001eec: 0009527f 2d082099    	v.lwi.local	[ta, lc0<<2, 2880], 	->vu.w
70001ef4: 0009527f 2e082099    	v.lwi.local	[ta, lc0<<2, 2944], 	->vu.w
70001efc: 0009527f 2f082119    	v.lwi.local	[ta, lc0<<2, 3008], 	->vm.w
70001f04: 014a027f 01110005    	v.add	vt#3.sw, vm#2.sw, 	->vt.w, nosat
70001f0c: 014a027f 00200005    	v.add	vt#1.sw, vt#3.sw, 	->vt.w, nosat
70001f14: 014a027f 00200005    	v.add	vt#1.sw, vt#3.sw, 	->vt.w, nosat
70001f1c: 014a027f 00a00005    	v.add	vt#1.sw, vu#3.sw, 	->vt.w, nosat
70001f24: 014a027f 00900005    	v.add	vt#1.sw, vu#2.sw, 	->vt.w, nosat
70001f2c: 014a027f 00800005    	v.add	vt#1.sw, vu#1.sw, 	->vt.w, nosat
70001f34: 014a027f 01000005    	v.add	vt#1.sw, vm#1.sw, 	->vt.w, nosat
70001f3c: 012a507f 010022d9    	v.swi.local	vt#1.sw, [ta, lc0<<2, 2560]
70001f44: 0009527f 30082119    	v.lwi.local	[ta, lc0<<2, 3072], 	->vm.w
70001f4c: 0009527f 31082019    	v.lwi.local	[ta, lc0<<2, 3136], 	->vt.w
70001f54: 0009527f 32082019    	v.lwi.local	[ta, lc0<<2, 3200], 	->vt.w
70001f5c: 0009527f 33082019    	v.lwi.local	[ta, lc0<<2, 3264], 	->vt.w
70001f64: 0009527f 34082099    	v.lwi.local	[ta, lc0<<2, 3328], 	->vu.w
70001f6c: 0009527f 35082099    	v.lwi.local	[ta, lc0<<2, 3392], 	->vu.w
70001f74: 0009527f 36082099    	v.lwi.local	[ta, lc0<<2, 3456], 	->vu.w
70001f7c: 0009527f 37082119    	v.lwi.local	[ta, lc0<<2, 3520], 	->vm.w
70001f84: 014a027f 01110005    	v.add	vt#3.sw, vm#2.sw, 	->vt.w, nosat
70001f8c: 014a027f 00200005    	v.add	vt#1.sw, vt#3.sw, 	->vt.w, nosat
70001f94: 014a027f 00200005    	v.add	vt#1.sw, vt#3.sw, 	->vt.w, nosat
70001f9c: 014a027f 00a00005    	v.add	vt#1.sw, vu#3.sw, 	->vt.w, nosat
70001fa4: 014a027f 00900005    	v.add	vt#1.sw, vu#2.sw, 	->vt.w, nosat
70001fac: 014a027f 00800005    	v.add	vt#1.sw, vu#1.sw, 	->vt.w, nosat
70001fb4: 014a027f 01000005    	v.add	vt#1.sw, vm#1.sw, 	->vt.w, nosat
70001fbc: 012a507f 01002359    	v.swi.local	vt#1.sw, [ta, lc0<<2, 3072]
70001fc4: 0009527f 38082119    	v.lwi.local	[ta, lc0<<2, 3584], 	->vm.w
70001fcc: 0009527f 39082019    	v.lwi.local	[ta, lc0<<2, 3648], 	->vt.w
70001fd4: 0009527f 3a082019    	v.lwi.local	[ta, lc0<<2, 3712], 	->vt.w
70001fdc: 0009527f 3b082019    	v.lwi.local	[ta, lc0<<2, 3776], 	->vt.w
70001fe4: 0009527f 3c082099    	v.lwi.local	[ta, lc0<<2, 3840], 	->vu.w
70001fec: 0009527f 3d082099    	v.lwi.local	[ta, lc0<<2, 3904], 	->vu.w
70001ff4: 0009527f 3e082099    	v.lwi.local	[ta, lc0<<2, 3968], 	->vu.w
70001ffc: 0009527f 3f082119    	v.lwi.local	[ta, lc0<<2, 4032], 	->vm.w
70002004: 014a027f 01110005    	v.add	vt#3.sw, vm#2.sw, 	->vt.w, nosat
7000200c: 014a027f 00200005    	v.add	vt#1.sw, vt#3.sw, 	->vt.w, nosat
70002014: 014a027f 00200005    	v.add	vt#1.sw, vt#3.sw, 	->vt.w, nosat
7000201c: 014a027f 00a00005    	v.add	vt#1.sw, vu#3.sw, 	->vt.w, nosat
70002024: 014a027f 00900005    	v.add	vt#1.sw, vu#2.sw, 	->vt.w, nosat
7000202c: 014a027f 00800005    	v.add	vt#1.sw, vu#1.sw, 	->vt.w, nosat
70002034: 014a027f 01000085    	v.add	vt#1.sw, vm#1.sw, 	->vu.w, nosat
7000203c: 012bd07f 010423d9    	v.swi.local	vu#1.reuse.sw, [ta, lc0<<2, 3584]
70002044: 0129527f 01f82009    	v.lw.local	[ta, lc0<<2, zero.sd], 	->vt.w
7000204c: 0009527f 08082019    	v.lwi.local	[ta, lc0<<2, 512], 	->vt.w
70002054: 014a027f 00100085    	v.add	vt#1.sw, vt#2.sw, 	->vu.w, nosat
7000205c: b929507f 41f82049    	v.sw.local	vu#1.reuse.sw, [ta, lc0<<2, zero.sd<<2]
70002064: 0009527f 10082019    	v.lwi.local	[ta, lc0<<2, 1024], 	->vt.w
7000206c: 0009527f 18082019    	v.lwi.local	[ta, lc0<<2, 1536], 	->vt.w
70002074: 014a027f 00100085    	v.add	vt#1.sw, vt#2.sw, 	->vu.w, nosat
7000207c: 012bd07f 01042159    	v.swi.local	vu#1.reuse.sw, [ta, lc0<<2, 1024]
70002084: 0009527f 20082019    	v.lwi.local	[ta, lc0<<2, 2048], 	->vt.w
7000208c: 0009527f 28082019    	v.lwi.local	[ta, lc0<<2, 2560], 	->vt.w
70002094: 014a027f 00100005    	v.add	vt#1.sw, vt#2.sw, 	->vt.w, nosat
7000209c: 012bd07f 01002259    	v.swi.local	vt#1.reuse.sw, [ta, lc0<<2, 2048]
700020a4: 0009527f 30082019    	v.lwi.local	[ta, lc0<<2, 3072], 	->vt.w
700020ac: 014a027f 00050005    	v.add	vu#3.sw, vt#1.sw, 	->vt.w, nosat
700020b4: 012bd07f 01002359    	v.swi.local	vt#1.reuse.sw, [ta, lc0<<2, 3072]
700020bc: 014a027f 00940005    	v.add	vu#1.sw, vu#2.sw, 	->vt.w, nosat
700020c4: 014a027f 00308005    	v.add	vt#2.sw, vt#4.sw, 	->vt.w, nosat
700020cc: 012bd07f 01002259    	v.swi.local	vt#1.reuse.sw, [ta, lc0<<2, 2048]
700020d4: 014a027f 00100005    	v.add	vt#1.sw, vt#2.sw, 	->vt.w, nosat
700020dc: b929507f 01f82049    	v.sw.local	vt#1.reuse.sw, [ta, lc0<<2, zero.sd<<2]
700020e4: a0a941ff 000c2049    	v.sw.local	vt#1.sw, [to, lc0.uh<<5]
700020ec: 0000000f 00000001    	L.BSTOP

00000000700020f4 <_Z25ExpandScalarImpl_ColMajorIN3pto4TileILNS0_8LocationE0EiLi16ELi64ELNS0_7BLayoutE1ELi16ELi8ELNS0_7SLayoutE0ELi512ELNS0_8PadValueE3EEEEvNT_9TileDTypeENS7_7int32_tE>:
; _Z25ExpandScalarImpl_ColMajorIN3pto4TileILNS0_8LocationE0EiLi16ELi64ELNS0_7BLayoutE1ELi16ELi8ELNS0_7SLayoutE0ELi512ELNS0_8PadValueE3EEEEvNT_9TileDTypeENS7_7int32_tE():
700020f4: a8a9527f 004c2049    	v.sw.local	ri0.sw, [to, lc0<<2, lc1.uh<<6]
700020fc: 0000000f 00000001    	L.BSTOP

0000000070002104 <_Z25ExpandScalarImpl_ColMajorIN3pto4TileILNS0_8LocationE0EiLi16ELi64ELNS0_7BLayoutE1ELi16ELi64ELNS0_7SLayoutE0ELi512ELNS0_8PadValueE3EEEEvNT_9TileDTypeENS7_7int32_tE>:
; _Z25ExpandScalarImpl_ColMajorIN3pto4TileILNS0_8LocationE0EiLi16ELi64ELNS0_7BLayoutE1ELi16ELi64ELNS0_7SLayoutE0ELi512ELNS0_8PadValueE3EEEEvNT_9TileDTypeENS7_7int32_tE():
70002104: a8a9527f 004c2049    	v.sw.local	ri0.sw, [to, lc0<<2, lc1.uh<<6]
7000210c: 0000000f 00000001    	L.BSTOP

0000000070002114 <_Z7_getpidv>:
; _Z7_getpidv():
70002114: 0800         	C.BSTART.STD	
70002116: 0800         	C.BSTART.STD	

0000000070002118 <__errno_location>:
; __errno_location():
70002118: 0840         	C.BSTART.AUX	
7000211a: 0000013b     	ssrget	0, 	->a0
7000211e: 3800         	C.BSTART.STD	RET
70002120: 0a411115     	subi	a0, 164, 	->a0
70002124: 029c         	c.setc.tgt	ra
70002126: 0800         	C.BSTART.STD	

0000000070002128 <snprintf>:
; snprintf():
70002128: 0800         	C.BSTART.STD	
7000212a: 10009095     	subi	sp, 256, 	->sp
7000212e: 32153059     	sdi	ra, [sp, 200]
70002132: 05b2         	C.BSTART.STD	DIRECT, 0x700021e8 <vsnprintf>
70002134: 55d6         	c.setret	0x70002162, ->ra <snprintf+0x3a>
70002136: 3e14b059     	sdi	a7, [sp, 248]
7000213a: 3c143059     	sdi	a6, [sp, 240]
7000213e: 3a13b059     	sdi	a5, [sp, 232]
70002142: 38133059     	sdi	a4, [sp, 224]
70002146: 3612b059     	sdi	a3, [sp, 216]
; ():
7000214a: 00005f87     	addtpc	5, 	->t
7000214e: 8cec3fa9     	ldi.u	[t#1, -1842], 	->t
70002152: 301c3059     	sdi	t#1, [sp, 192]
70002156: 0d808f95     	addi	sp, 216, 	->t
7000215a: 2e1c3059     	sdi	t#1, [sp, 184]
7000215e: 0d808295     	addi	sp, 216, 	->a3
70002162: 00e4         	C.BSTART.STD	COND, 0x7000217e <.LBB0_4>
70002164: 00005f87     	addtpc	5, 	->t
70002168: 8b4c3fa9     	ldi.u	[t#1, -1868], 	->t
7000216c: 0180bf99     	ldi	[sp, 192], 	->t
70002170: c676         	c.setc.ne	t#2, t#1
70002172: 3800         	C.BSTART.STD	RET
70002174: 0190b519     	ldi	[sp, 200], 	->ra
70002178: 10008095     	addi	sp, 256, 	->sp
7000217c: 029c         	c.setc.tgt	ra

000000007000217e <.LBB0_4>:
; .LBB0_4():
7000217e: 0302         	C.BSTART.STD	DIRECT, 0x700021de <__stack_chk_fail_local>
70002180: 5056         	c.setret	0x70002182, ->ra <.LBB0_4+0x4>
; ():
70002182: 0800         	C.BSTART.STD	

0000000070002184 <__init_ssp>:
; __init_ssp():
70002184: 40a50041     	FENTRY	[ra ~ ra], sp!, 256
70002188: 00c4         	C.BSTART.STD	COND, 0x700021a0 <.LBB0_3>
7000218a: 00a6         	c.setc.eq	a0, zero
7000218c: 000e5711     	BSTART.STD	DIRECT, 0x70005ae8 <memcpy>
70002190: 51d6         	c.setret	0x7000219e, ->ra <__init_ssp+0x1a>
70002192: 1886         	c.movr	a0, 	->a1
; ():
70002194: 00005f87     	addtpc	5, 	->t
70002198: 77cc1115     	subi	t#1, 1916, 	->a0
7000219c: 2216         	c.movi	8, 	->a2
7000219e: 00e2         	C.BSTART.STD	DIRECT, 0x700021ba <.LBB0_4>

00000000700021a0 <.LBB0_3>:
; .LBB0_3():
700021a0: 0800         	C.BSTART.STD	
; ():
700021a2: 00005f07     	addtpc	5, 	->u
700021a6: 78ae1f95     	subi	u#1, 1930, 	->t
700021aa: 41c64f97     	lui	269412, 	->t
700021ae: e6dc0f95     	addi	t#1, 3693, 	->t
700021b2: 018d0fc7     	mul	t#3, t#1, 	->t
700021b6: edcc7859     	sdi.u	t#1, [u#1, -1930]

00000000700021ba <.LBB0_4>:
; .LBB0_4():
700021ba: 0800         	C.BSTART.STD	
; ():
700021bc: 00005f87     	addtpc	5, 	->t
700021c0: 7a4c1f95     	subi	t#1, 1956, 	->t
700021c4: 03800059     	sbi	zero, [t#1, 1]
700021c8: 85ccb129     	ldi.u	[t#2, -1956], 	->a0
700021cc: 0840         	C.BSTART.AUX	
700021ce: 000001bb     	ssrget	0, 	->a1
700021d2: 0800         	C.BSTART.STD	
700021d4: fc313fd9     	sdi	a0, [a1, -16]
700021d8: 40a53041     	FRET.STK	[ra ~ ra], sp!, 256
700021dc: 0800         	C.BSTART.STD	

00000000700021de <__stack_chk_fail_local>:
; __stack_chk_fail():
700021de: 3800         	C.BSTART.STD	RET
700021e0: 00000049     	sb	zero, [zero, zero]
700021e4: 029c         	c.setc.tgt	ra
700021e6: 0800         	C.BSTART.STD	

00000000700021e8 <vsnprintf>:
; vsnprintf():
700021e8: 80d50041     	FENTRY	[ra ~ s2], sp!, 512
700021ec: 0800         	C.BSTART.STD	
700021ee: 000e4f91     	BSTART.STD	DIRECT, 0x70005b2c <memset>
700021f2: 5716         	c.setret	0x7000222a, ->ra <vsnprintf+0x42>
700021f4: 5946         	c.movr	a3, 	->s0
700021f6: 6106         	c.movr	a2, 	->s1
; ():
700021f8: 00005f87     	addtpc	5, 	->t
700021fc: 820c3fa9     	ldi.u	[t#1, -2016], 	->t
70002200: 761c3059     	sdi	t#1, [sp, 472]
70002204: 00018fd5     	cmp.eqi	a1, 0, 	->t
70002208: 1c808f95     	addi	sp, 456, 	->t
7000220c: c82c06f7     	csel	t#2, t#1, a0, 	->s2
70002210: 6e16b059     	sdi	s2, [sp, 440]
70002214: 00119f95     	subi	a1, 1, 	->t
70002218: d1800ff7     	csel	t#3, zero, t#1, 	->t
7000221c: 701c3059     	sdi	t#1, [sp, 448]
70002220: 1806         	c.movr	zero, 	->a1
70002222: 0d008115     	addi	sp, 208, 	->a0
70002226: 0e800215     	addi	zero, 232, 	->a2
7000222a: 0712         	C.BSTART.STD	DIRECT, 0x7000230c <vfprintf>
7000222c: 56d6         	c.setret	0x70002262, ->ra <vsnprintf+0x7a>
7000222e: 00000f87     	addtpc	0, 	->t
70002232: 050c0f95     	addi	t#1, 80, 	->t
70002236: 461c3059     	sdi	t#1, [sp, 280]
7000223a: 1d008f95     	addi	sp, 464, 	->t
7000223e: 4a1c3059     	sdi	t#1, [sp, 296]
70002242: ffd6         	c.movi	-1, 	->t
70002244: 6e1c         	c.zext.w	t#1, ->t
70002246: ae1c2059     	swi	t#1, [sp, 348]
7000224a: b01c2059     	swi	t#1, [sp, 352]
7000224e: 1b808f95     	addi	sp, 440, 	->t
70002252: 5a1c3059     	sdi	t#1, [sp, 360]
70002256: 00068049     	sb	zero, [s2, zero]
7000225a: 1b06         	c.movr	s1, 	->a1
7000225c: 22c6         	c.movr	s0, 	->a2
7000225e: 0d008115     	addi	sp, 208, 	->a0
70002262: 00b4         	C.BSTART.STD	COND, 0x70002278 <.LBB0_6>
70002264: 00004f87     	addtpc	4, 	->t
70002268: 7b4c3fa9     	ldi.u	[t#1, 1972], 	->t
7000226c: 03b0bf99     	ldi	[sp, 472], 	->t
70002270: c676         	c.setc.ne	t#2, t#1
70002272: 0800         	C.BSTART.STD	
70002274: 80d53041     	FRET.STK	[ra ~ s2], sp!, 512

0000000070002278 <.LBB0_6>:
; .LBB0_6():
70002278: fb32         	C.BSTART.STD	DIRECT, 0x700021de <__stack_chk_fail_local>
7000227a: 5056         	c.setret	0x7000227c, ->ra <.LBB0_6+0x4>
; ():
7000227c: 0800         	C.BSTART.STD	

000000007000227e <sn_write>:
; sn_write():
7000227e: 40f50041     	FENTRY	[ra ~ s4], sp!, 256
70002282: 0800         	C.BSTART.STD	
70002284: 0224         	C.BSTART.STD	COND, 0x700022c8 <.LBB1_4>
70002286: 6106         	c.movr	a2, 	->s1
70002288: 68c6         	c.movr	a1, 	->s2
7000228a: 5886         	c.movr	a0, 	->s0
7000228c: 0135b799     	ldi	[s0, 152], 	->s4
70002290: 0017b119     	ldi	[s4, 8], 	->a0
70002294: 2ada         	c.ldi	[s0, 40], ->t
70002296: 0075b199     	ldi	[s0, 56], 	->a1
7000229a: 1e18         	c.sub	t#1, a1, ->t
7000229c: 01816fc5     	cmp.ltu	a0, t#1, 	->t
700022a0: c1910777     	csel	t#1, a0, t#2, 	->s3
700022a4: 03a6         	c.setc.eq	s3, zero
700022a6: 000e1091     	BSTART.STD	DIRECT, 0x70005ae8 <memcpy>
700022aa: 5116         	c.setret	0x700022b2, ->ra <sn_write+0x34>
700022ac: 0007b109     	ld	[s4, zero], 	->a0
700022b0: 2386         	c.movr	s3, 	->a2
; ():
700022b2: 0800         	C.BSTART.STD	
700022b4: 0007bf89     	ld	[s4, zero], 	->t
700022b8: 7608         	c.add	t#1, s3, ->t
700022ba: c007b049     	sd	t#1, [s4, zero<<3]
700022be: 0bda         	c.ldi	[s4, 8], ->t
700022c0: 00ec1105     	sub	t#1, s3, 	->a0
700022c4: 02f13059     	sdi	a0, [s4, 8]

00000000700022c8 <.LBB1_4>:
; .LBB1_4():
700022c8: 0184         	C.BSTART.STD	COND, 0x700022f8 <.LBB1_7>
700022ca: 00c16fc5     	cmp.ltu	a0, s1, 	->t
700022ce: c0c10777     	csel	t#1, a0, s1, 	->s3
700022d2: 03a6         	c.setc.eq	s3, zero
700022d4: 0007b189     	ld	[s4, zero], 	->a1
700022d8: 000e0411     	BSTART.STD	DIRECT, 0x70005ae8 <memcpy>
700022dc: 5116         	c.setret	0x700022e4, ->ra <.LBB1_4+0x1c>
700022de: 10c6         	c.movr	a1, 	->a0
700022e0: 1b46         	c.movr	s2, 	->a1
700022e2: 2386         	c.movr	s3, 	->a2
; ():
700022e4: 0800         	C.BSTART.STD	
700022e6: 0007bf89     	ld	[s4, zero], 	->t
700022ea: 00ec0185     	add	t#1, s3, 	->a1
700022ee: 1807b049     	sd	a1, [s4, zero<<3]
700022f2: 0bda         	c.ldi	[s4, 8], ->t
700022f4: 7618         	c.sub	t#1, s3, ->t
700022f6: 0bfa         	c.sdi	t#1, [s4, 8]

00000000700022f8 <.LBB1_7>:
; .LBB1_7():
700022f8: 0800         	C.BSTART.STD	
700022fa: 1306         	c.movr	s1, 	->a0
700022fc: 00018049     	sb	zero, [a1, zero]
70002300: 5ada         	c.ldi	[s0, 88], ->t
70002302: 3afa         	c.sdi	t#1, [s0, 56]
70002304: 2afa         	c.sdi	t#1, [s0, 40]
70002306: 40f53041     	FRET.STK	[ra ~ s4], sp!, 256
7000230a: 0800         	C.BSTART.STD	

000000007000230c <vfprintf>:
; vfprintf():
7000230c: 81050041     	FENTRY	[ra ~ s5], sp!, 512
70002310: 0800         	C.BSTART.STD	
70002312: 000e0691     	BSTART.STD	DIRECT, 0x70005b2c <memset>
70002316: 5416         	c.setret	0x70002336, ->ra <vfprintf+0x2a>
70002318: 68c6         	c.movr	a1, 	->s2
7000231a: 5886         	c.movr	a0, 	->s0
; ():
7000231c: 00004f87     	addtpc	4, 	->t
70002320: 6fcc3fa9     	ldi.u	[t#1, 1788], 	->t
70002324: 701c3059     	sdi	t#1, [sp, 448]
70002328: 26123059     	sdi	a2, [sp, 152]
7000232c: 1806         	c.movr	zero, 	->a1
7000232e: 19808115     	addi	sp, 408, 	->a0
70002332: 02800215     	addi	zero, 40, 	->a2
70002336: 08b2         	C.BSTART.STD	DIRECT, 0x7000244c <printf_core>
70002338: 5356         	c.setret	0x70002352, ->ra <vfprintf+0x46>
7000233a: 0130bf99     	ldi	[sp, 152], 	->t
7000233e: 241c3059     	sdi	t#1, [sp, 144]
70002342: 1006         	c.movr	zero, 	->a0
70002344: 1b46         	c.movr	s2, 	->a1
70002346: 09008215     	addi	sp, 144, 	->a2
7000234a: 0f008295     	addi	sp, 240, 	->a3
7000234e: 19808315     	addi	sp, 408, 	->a4
70002352: 00e4         	C.BSTART.STD	COND, 0x7000236e <.LBB0_7>
70002354: 00014075     	setc.lti	a0, 0
70002358: 00d4         	C.BSTART.STD	COND, 0x70002372 <.LBB0_8>
7000235a: 0235af99     	lwi	[s0, 140], 	->t
7000235e: 000c4075     	setc.lti	t#1, 0
70002362: 0007bc91     	BSTART.STD	DIRECT, 0x70004254 <__lockfile>
70002366: 5096         	c.setret	0x7000236a, ->ra <vfprintf+0x5e>
70002368: 12c6         	c.movr	s0, 	->a0
7000236a: 0062         	C.BSTART.STD	DIRECT, 0x70002376 <.LBB0_9>
7000236c: 6086         	c.movr	a0, 	->s1

000000007000236e <.LBB0_7>:
; .LBB0_7():
7000236e: 0602         	C.BSTART.STD	DIRECT, 0x7000242e <.LBB0_21>
70002370: 6fd6         	c.movi	-1, 	->s2

0000000070002372 <.LBB0_8>:
; .LBB0_8():
70002372: 0800         	C.BSTART.STD	
70002374: 6006         	c.movr	zero, 	->s1

0000000070002376 <.LBB0_9>:
; .LBB0_9():
70002376: 00e4         	C.BSTART.STD	COND, 0x70002392 <.LBB0_11>
70002378: 0005e809     	lwu	[s0, zero], 	->s5
7000237c: 14082fe7     	bic	s5, 5, 1, 	->t
70002380: c005a049     	sw	t#1, [s0, zero<<2]
70002384: 62da         	c.ldi	[s0, 96], ->t
70002386: 0626         	c.setc.eq	t#1, zero
70002388: 01b4         	C.BSTART.STD	COND, 0x700023be <.LBB0_14>
7000238a: 7806         	c.movr	zero, 	->s4
7000238c: 22da         	c.ldi	[s0, 32], ->t
7000238e: 0636         	c.setc.ne	t#1, zero
70002390: 0102         	C.BSTART.STD	DIRECT, 0x700023b0 <.LBB0_12>

0000000070002392 <.LBB0_11>:
; .LBB0_11():
70002392: 0800         	C.BSTART.STD	
70002394: 00b5b799     	ldi	[s0, 88], 	->s4
70002398: 0a008f95     	addi	sp, 160, 	->t
7000239c: 5afa         	c.sdi	t#1, [s0, 88]
7000239e: 05000f95     	addi	zero, 80, 	->t
700023a2: 62fa         	c.sdi	t#1, [s0, 96]
700023a4: 08b03059     	sdi	zero, [s0, 32]
700023a8: 0eb03059     	sdi	zero, [s0, 56]
700023ac: 0ab03059     	sdi	zero, [s0, 40]

00000000700023b0 <.LBB0_12>:
; .LBB0_12():
700023b0: 0007d311     	BSTART.STD	DIRECT, 0x700042fc <__towrite>
700023b4: 5096         	c.setret	0x700023b8, ->ra <.LBB0_12+0x8>
700023b6: 12c6         	c.movr	s0, 	->a0
; ():
700023b8: 00f4         	C.BSTART.STD	COND, 0x700023d6 <.LBB0_16>
700023ba: 00b6         	c.setc.ne	a0, zero
700023bc: 77d6         	c.movi	-1, 	->s3

00000000700023be <.LBB0_14>:
; .LBB0_14():
700023be: 0472         	C.BSTART.STD	DIRECT, 0x7000244c <printf_core>
700023c0: 5256         	c.setret	0x700023d2, ->ra <.LBB0_14+0x14>
700023c2: 12c6         	c.movr	s0, 	->a0
700023c4: 1b46         	c.movr	s2, 	->a1
700023c6: 09008215     	addi	sp, 144, 	->a2
700023ca: 0f008295     	addi	sp, 240, 	->a3
700023ce: 19808315     	addi	sp, 408, 	->a4
; ():
700023d2: 0800         	C.BSTART.STD	
700023d4: 7086         	c.movr	a0, 	->s3

00000000700023d6 <.LBB0_16>:
; .LBB0_16():
700023d6: 01b4         	C.BSTART.STD	COND, 0x7000240c <.LBB0_19>
700023d8: 03e6         	c.setc.eq	s4, zero
700023da: 02082815     	andi	s5, 32, 	->s5
700023de: 3000         	C.BSTART.STD	ICALL
700023e0: 5196         	c.setret	0x700023ec, ->ra <.LBB0_16+0x16>
700023e2: 4ada         	c.ldi	[s0, 72], ->t
700023e4: 061c         	c.setc.tgt	t#1
700023e6: 12c6         	c.movr	s0, 	->a0
700023e8: 1806         	c.movr	zero, 	->a1
700023ea: 2006         	c.movr	zero, 	->a2
; ():
700023ec: 0800         	C.BSTART.STD	
700023ee: 2ada         	c.ldi	[s0, 40], ->t
700023f0: 002c         	c.cmp.eqi	t#1, 0, ->t
700023f2: ffd6         	c.movi	-1, 	->t
700023f4: c8ec0777     	csel	t#2, t#1, s3, 	->s3
700023f8: 16b7b059     	sdi	s4, [s0, 88]
700023fc: 18b03059     	sdi	zero, [s0, 96]
70002400: 08b03059     	sdi	zero, [s0, 32]
70002404: 0eb03059     	sdi	zero, [s0, 56]
70002408: 0ab03059     	sdi	zero, [s0, 40]

000000007000240c <.LBB0_19>:
; .LBB0_19():
7000240c: 0114         	C.BSTART.STD	COND, 0x7000242e <.LBB0_21>
7000240e: 0326         	c.setc.eq	s1, zero
70002410: 0005ef89     	lwu	[s0, zero], 	->t
70002414: 020c2f95     	andi	t#1, 32, 	->t
70002418: 002c         	c.cmp.eqi	t#1, 0, ->t
7000241a: ffd6         	c.movi	-1, 	->t
7000241c: c98706f7     	csel	t#2, s3, t#1, 	->s2
70002420: 86f8         	c.or	t#4, s5, ->t
70002422: c005a049     	sw	t#1, [s0, zero<<2]
70002426: 00079891     	BSTART.STD	DIRECT, 0x70004288 <__unlockfile>
7000242a: 5096         	c.setret	0x7000242e, ->ra <.LBB0_21>
7000242c: 12c6         	c.movr	s0, 	->a0

000000007000242e <.LBB0_21>:
; ():
7000242e: 00c4         	C.BSTART.STD	COND, 0x70002446 <.LBB0_24>
70002430: 00004f87     	addtpc	4, 	->t
70002434: 5e8c3fa9     	ldi.u	[t#1, 1512], 	->t
70002438: 0380bf99     	ldi	[sp, 448], 	->t
7000243c: c676         	c.setc.ne	t#2, t#1
7000243e: 0800         	C.BSTART.STD	
70002440: 1346         	c.movr	s2, 	->a0
70002442: 81053041     	FRET.STK	[ra ~ s5], sp!, 512

0000000070002446 <.LBB0_24>:
; .LBB0_24():
70002446: ecc2         	C.BSTART.STD	DIRECT, 0x700021de <__stack_chk_fail_local>
70002448: 5056         	c.setret	0x7000244a, ->ra <.LBB0_24+0x4>
; ():
7000244a: 0800         	C.BSTART.STD	

000000007000244c <printf_core>:
; printf_core():
7000244c: 41350041     	FENTRY	[ra ~ s8], sp!, 256
70002450: 0800         	C.BSTART.STD	
70002452: 0800         	C.BSTART.STD	
70002454: 1a133059     	sdi	a4, [sp, 104]
70002458: 1612b059     	sdi	a3, [sp, 88]
7000245c: 18123059     	sdi	a2, [sp, 96]
70002460: 80c6         	c.movr	a1, 	->s5
70002462: 0c103059     	sdi	zero, [sp, 48]
70002466: 6806         	c.movr	zero, 	->s2
70002468: 9806         	c.movr	zero, 	->s8
; ():
7000246a: 00004f87     	addtpc	4, 	->t
7000246e: 5aec3fa9     	ldi.u	[t#1, 1454], 	->t
70002472: 2a1c3059     	sdi	t#1, [sp, 168]
70002476: 14113059     	sdi	a0, [sp, 80]
7000247a: 00010fd5     	cmp.eqi	a0, 0, 	->t
7000247e: 487a         	c.sdi	t#1, [sp, 72]
70002480: 09008f95     	addi	sp, 144, 	->t
70002484: 018c0f95     	addi	t#1, 24, 	->t
70002488: 407a         	c.sdi	t#1, [sp, 64]
7000248a: 017c8115     	addi	t#2, 23, 	->a0
7000248e: 0e113059     	sdi	a0, [sp, 56]

0000000070002492 <.LBB1_2>:
; .LBB1_2():
70002492: 0800         	C.BSTART.STD	
70002494: 00a0b599     	ldi	[sp, 80], 	->s0
70002498: 0090b799     	ldi	[sp, 72], 	->s4

000000007000249c <.LBB1_3>:
; .LBB1_3():
7000249c: 5104         	C.BSTART.STD	COND, 0x70002ebc <.LBB1_218>
7000249e: 8c06         	c.movr	s5, 	->s6
700024a0: 7fffff97     	lui	524287, 	->t
700024a4: fffc0f95     	addi	t#1, 4095, 	->t
700024a8: 0186cfa5     	xorw	s2, t#1, 	->t
700024ac: 033c4065     	setc.lt	t#1, s8.sw
700024b0: 5094         	C.BSTART.STD	COND, 0x70002ec2 <.LBB1_219>
700024b2: 00d986a5     	addw	s8, s2, 	->s2
700024b6: 0008c109     	lbu	[s6, zero], 	->a0
700024ba: 00a6         	c.setc.eq	a0, zero
700024bc: 0800         	C.BSTART.STD	
700024be: 8446         	c.movr	s6, 	->s5

00000000700024c0 <.LBB1_6>:
; .LBB1_6():
700024c0: 0084         	C.BSTART.STD	COND, 0x700024d0 <.LBB1_9>
700024c2: 23712167     	bic	a0, 8, 56, 	->a0
700024c6: 02515075     	setc.gei	a0, 37
700024ca: 0064         	C.BSTART.STD	COND, 0x700024d6 <.LBB1_10>
700024cc: 00b6         	c.setc.ne	a0, zero
700024ce: 0092         	C.BSTART.STD	DIRECT, 0x700024e0 <.LBB1_8>

00000000700024d0 <.LBB1_9>:
; .LBB1_9():
700024d0: 00a4         	C.BSTART.STD	COND, 0x700024e4 <.LBB1_11>
700024d2: 02510075     	setc.eqi	a0, 37

00000000700024d6 <.LBB1_10>:
; .LBB1_10():
700024d6: ff52         	C.BSTART.STD	DIRECT, 0x700024c0 <.LBB1_6>
700024d8: 0c0c         	c.addi	s5, 1, ->t
700024da: 00184119     	lbui	[s5, 1], 	->a0
700024de: 8606         	c.movr	t#1, 	->s5

00000000700024e0 <.LBB1_8>:
; .LBB1_8():
700024e0: 0172         	C.BSTART.STD	DIRECT, 0x7000250e <.LBB1_15>
700024e2: 1406         	c.movr	s5, 	->a0

00000000700024e4 <.LBB1_11>:
; .LBB1_11():
700024e4: 0800         	C.BSTART.STD	
700024e6: 1406         	c.movr	s5, 	->a0
700024e8: 1c06         	c.movr	s5, 	->a1

00000000700024ea <.LBB1_12>:
; .LBB1_12():
700024ea: 0104         	C.BSTART.STD	COND, 0x7000250a <.LBB1_14>
700024ec: 0011cf99     	lbui	[a1, 1], 	->t
700024f0: 025c1075     	setc.nei	t#1, 37
700024f4: ffb4         	C.BSTART.STD	COND, 0x700024ea <.LBB1_12>
700024f6: 00110115     	addi	a0, 1, 	->a0
700024fa: 00218815     	addi	a1, 2, 	->s5
700024fe: 0021cf99     	lbui	[a1, 2], 	->t
70002502: 025c0075     	setc.eqi	t#1, 37
70002506: 1c06         	c.movr	s5, 	->a1
70002508: 0032         	C.BSTART.STD	DIRECT, 0x7000250e <.LBB1_15>

000000007000250a <.LBB1_14>:
; .LBB1_14():
7000250a: 0800         	C.BSTART.STD	
7000250c: 80c6         	c.movr	a1, 	->s5

000000007000250e <.LBB1_15>:
; .LBB1_15():
7000250e: 4fe4         	C.BSTART.STD	COND, 0x70002f0a <.LBB1_226>
70002510: 01111985     	sub	a0, s6, 	->s8
70002514: 7fffff97     	lui	524287, 	->t
70002518: fffc0f95     	addi	t#1, 4095, 	->t
7000251c: 0186c705     	xor	s2, t#1, 	->s3
70002520: 6b9c         	c.zext.w	s3, ->t
70002522: 013c4065     	setc.lt	t#1, s8
70002526: 00e4         	C.BSTART.STD	COND, 0x70002542 <.LBB1_19>
70002528: 03f6         	c.setc.ne	s4, zero
7000252a: 00c4         	C.BSTART.STD	COND, 0x70002542 <.LBB1_19>
7000252c: 0005cf89     	lbu	[s0, zero], 	->t
70002530: 020c2075     	setc.andi	t#1, 32
70002534: 0007bb11     	BSTART.STD	DIRECT, 0x70004420 <__fwritex>
70002538: 5156         	c.setret	0x70002542, ->ra <.LBB1_19>
7000253a: 03303185     	or	zero, s8.sw, 	->a1
7000253e: 1446         	c.movr	s6, 	->a0
70002540: 22c6         	c.movr	s0, 	->a2

0000000070002542 <.LBB1_19>:
; ():
70002542: fad4         	C.BSTART.STD	COND, 0x7000249c <.LBB1_3>
70002544: 54dc         	c.sext.w	s8, ->t
70002546: 0636         	c.setc.ne	t#1, zero
70002548: 0194         	C.BSTART.STD	COND, 0x7000257a <.LBB1_23>
7000254a: 00180195     	addi	s5, 1, 	->a1
7000254e: 00184219     	lbui	[s5, 1], 	->a2
70002552: 03021295     	subi	a2, 48, 	->a3
70002556: 17d6         	c.movi	-1, 	->a0
70002558: fa56         	c.movi	9, 	->t
7000255a: 005c6065     	setc.ltu	t#1, a3
7000255e: 00e4         	C.BSTART.STD	COND, 0x7000257a <.LBB1_23>
70002560: 00284f99     	lbui	[s5, 2], 	->t
70002564: 024c1075     	setc.nei	t#1, 36
70002568: 0800         	C.BSTART.STD	
7000256a: 1146         	c.movr	a3, 	->a0
7000256c: 00380195     	addi	s5, 3, 	->a1
70002570: 00384219     	lbui	[s5, 3], 	->a2
70002574: 2856         	c.movi	1, 	->a3
70002576: 0c12b059     	sdi	a3, [sp, 48]

000000007000257a <.LBB1_23>:
; .LBB1_23():
7000257a: 02c4         	C.BSTART.STD	COND, 0x700025d2 <.LBB1_28>
7000257c: 02021295     	subi	a2, 32, 	->a3
70002580: 01f00f95     	addi	zero, 31, 	->t
70002584: 005c6065     	setc.ltu	t#1, a3
70002588: 0274         	C.BSTART.STD	COND, 0x700025d6 <.LBB1_29>
7000258a: f856         	c.movi	1, 	->t
7000258c: 005c72a5     	sllw	t#1, a3, 	->a3
70002590: 00012f97     	lui	18, 	->t
70002594: 889c0f95     	addi	t#1, 2185, 	->t
70002598: c168         	c.and	a3, t#1, ->t
7000259a: 0626         	c.setc.eq	t#1, zero
7000259c: 0800         	C.BSTART.STD	
7000259e: 5806         	c.movr	zero, 	->s0
700025a0: 00118315     	addi	a1, 1, 	->a4

00000000700025a4 <.LBB1_26>:
; .LBB1_26():
700025a4: 01b4         	C.BSTART.STD	COND, 0x700025da <.LBB1_30>
700025a6: 1986         	c.movr	a4, 	->a1
700025a8: 0001c209     	lbu	[a1, zero], 	->a2
700025ac: 02021315     	subi	a2, 32, 	->a4
700025b0: 02037075     	setc.geui	a4, 32
700025b4: 00b2b585     	or	a3, s0, 	->s0
700025b8: ff64         	C.BSTART.STD	COND, 0x700025a4 <.LBB1_26>
700025ba: f856         	c.movi	1, 	->t
700025bc: 006c72a5     	sllw	t#1, a4, 	->a3
700025c0: 00012f97     	lui	18, 	->t
700025c4: 889c0f95     	addi	t#1, 2185, 	->t
700025c8: 0182a065     	setc.and	a3, t#1
700025cc: 00118315     	addi	a1, 1, 	->a4
700025d0: 0052         	C.BSTART.STD	DIRECT, 0x700025da <.LBB1_30>

00000000700025d2 <.LBB1_28>:
; .LBB1_28():
700025d2: 0042         	C.BSTART.STD	DIRECT, 0x700025da <.LBB1_30>
700025d4: 5806         	c.movr	zero, 	->s0

00000000700025d6 <.LBB1_29>:
; .LBB1_29():
700025d6: 0800         	C.BSTART.STD	
700025d8: 5806         	c.movr	zero, 	->s0

00000000700025da <.LBB1_30>:
; .LBB1_30():
700025da: 0194         	C.BSTART.STD	COND, 0x7000260c <.LBB1_35>
700025dc: 02a21075     	setc.nei	a2, 42
700025e0: 04f4         	C.BSTART.STD	COND, 0x7000267e <.LBB1_43>
700025e2: 0011cf99     	lbui	[a1, 1], 	->t
700025e6: 030c1215     	subi	t#1, 48, 	->a2
700025ea: fa56         	c.movi	9, 	->t
700025ec: 004c6065     	setc.ltu	t#1, a2
700025f0: 0474         	C.BSTART.STD	COND, 0x7000267e <.LBB1_43>
700025f2: 0021cf99     	lbui	[a1, 2], 	->t
700025f6: 024c1075     	setc.nei	t#1, 36
700025fa: 05d4         	C.BSTART.STD	COND, 0x700026b4 <.LBB1_48>
700025fc: 03f6         	c.setc.ne	s4, zero
700025fe: 81f22267     	bic	a2, 32, 32, 	->a2
70002602: 0602         	C.BSTART.STD	DIRECT, 0x700026c2 <.LBB1_49>
70002604: 00b0b299     	ldi	[sp, 88], 	->a3
70002608: 2042b609     	ld	[a3, a2<<4], 	->s1

000000007000260c <.LBB1_35>:
; .LBB1_35():
7000260c: 04e4         	C.BSTART.STD	COND, 0x700026a8 <.LBB1_46>
7000260e: 03021295     	subi	a2, 48, 	->a3
70002612: fa56         	c.movi	9, 	->t
70002614: 005c6065     	setc.ltu	t#1, a3
70002618: 0800         	C.BSTART.STD	
7000261a: 20c6         	c.movr	a1, 	->a2
7000261c: 6006         	c.movr	zero, 	->s1

000000007000261e <.LBB1_37>:
; .LBB1_37():
7000261e: 0124         	C.BSTART.STD	COND, 0x70002642 <.LBB1_40>
70002620: 0ccccf97     	lui	52428, 	->t
70002624: cccc0f95     	addi	t#1, 3276, 	->t
70002628: 02cc7065     	setc.geu	t#1, s1.sw
7000262c: ff94         	C.BSTART.STD	COND, 0x7000261e <.LBB1_37>
7000262e: 090c         	c.addi	a2, 1, ->t
70002630: 00124f99     	lbui	[a2, 1], 	->t
70002634: 2646         	c.movr	t#2, 	->a2
70002636: 030c1295     	subi	t#1, 48, 	->a3
7000263a: 00a2e075     	setc.ltui	a3, 10
7000263e: 67d6         	c.movi	-1, 	->s1
70002640: 48b2         	C.BSTART.STD	DIRECT, 0x70002f56 <.LBB1_39>

0000000070002642 <.LBB1_40>:
; .LBB1_40():
70002642: fee4         	C.BSTART.STD	COND, 0x7000261e <.LBB1_37>
70002644: fa96         	c.movi	10, 	->t
70002646: 01860fc7     	mul	s1, t#1, 	->t
7000264a: 005c0f25     	addw	t#1, a3, 	->u
7000264e: 7fffff97     	lui	524287, 	->t
70002652: fffc0f95     	addi	t#1, 4095, 	->t
70002656: 018d4fa5     	xorw	t#3, t#1, 	->t
7000265a: 025c6fc5     	cmp.ltu	t#1, a3.sw, 	->t
7000265e: ffd6         	c.movi	-1, 	->t
70002660: c9cc0677     	csel	t#2, t#1, u#1, 	->s1
70002664: 00120195     	addi	a2, 1, 	->a1
70002668: 00124f99     	lbui	[a2, 1], 	->t
7000266c: 20c6         	c.movr	a1, 	->a2
7000266e: 030c1295     	subi	t#1, 48, 	->a3
70002672: 00a2e075     	setc.ltui	a3, 10
70002676: 0354         	C.BSTART.STD	COND, 0x700026e0 <.LBB1_52>
70002678: 00065075     	setc.gei	s1, 0
7000267c: 47e2         	C.BSTART.STD	DIRECT, 0x70002f78 <.LBB1_42>

000000007000267e <.LBB1_43>:
; .LBB1_43():
7000267e: 4724         	C.BSTART.STD	COND, 0x70002f62 <.LBB1_237>
70002680: 0060b219     	ldi	[sp, 48], 	->a2
70002684: 511c         	c.sext.w	a2, ->t
70002686: 0636         	c.setc.ne	t#1, zero
70002688: 0124         	C.BSTART.STD	COND, 0x700026ac <.LBB1_47>
7000268a: 03f6         	c.setc.ne	s4, zero
7000268c: 00118195     	addi	a1, 1, 	->a1
70002690: 01f2         	C.BSTART.STD	DIRECT, 0x700026ce <.LBB1_50>
70002692: 0c103059     	sdi	zero, [sp, 48]
70002696: 00c0b219     	ldi	[sp, 96], 	->a2
7000269a: 00023f89     	ld	[a2, zero], 	->t
7000269e: 460c         	c.addi	t#1, 8, ->t
700026a0: c0023049     	sd	t#1, [a2, zero<<3]
700026a4: 000ce609     	lwu	[t#2, zero], 	->s1

00000000700026a8 <.LBB1_46>:
; .LBB1_46():
700026a8: 01c2         	C.BSTART.STD	DIRECT, 0x700026e0 <.LBB1_52>
700026aa: 6006         	c.movr	zero, 	->s1

00000000700026ac <.LBB1_47>:
; .LBB1_47():
700026ac: 01a2         	C.BSTART.STD	DIRECT, 0x700026e0 <.LBB1_52>
700026ae: 0c103059     	sdi	zero, [sp, 48]
700026b2: 6006         	c.movr	zero, 	->s1

00000000700026b4 <.LBB1_48>:
; .LBB1_48():
700026b4: 0800         	C.BSTART.STD	
700026b6: 6006         	c.movr	zero, 	->s1
700026b8: fa96         	c.movi	10, 	->t
700026ba: 00d0b299     	ldi	[sp, 104], 	->a3
700026be: c042a049     	sw	t#1, [a3, a2<<2]

00000000700026c2 <.LBB1_49>:
; .LBB1_49():
700026c2: 0800         	C.BSTART.STD	
700026c4: 00318195     	addi	a1, 3, 	->a1
700026c8: 2056         	c.movi	1, 	->a2
700026ca: 0c123059     	sdi	a2, [sp, 48]

00000000700026ce <.LBB1_50>:
; .LBB1_50():
700026ce: 0094         	C.BSTART.STD	COND, 0x700026e0 <.LBB1_52>
700026d0: ffd6         	c.movi	-1, 	->t
700026d2: 02cc4065     	setc.lt	t#1, s1.sw
700026d6: 0800         	C.BSTART.STD	
700026d8: 3405b5e7     	bis	s0, 13, 1, 	->s0
700026dc: 00c01625     	subw	zero, s1, 	->s1

00000000700026e0 <.LBB1_52>:
; .LBB1_52():
700026e0: 0204         	C.BSTART.STD	COND, 0x70002720 <.LBB1_58>
700026e2: 0001cf89     	lbu	[a1, zero], 	->t
700026e6: 02ec1075     	setc.nei	t#1, 46
700026ea: 01e4         	C.BSTART.STD	COND, 0x70002726 <.LBB1_59>
700026ec: 0011c219     	lbui	[a1, 1], 	->a2
700026f0: 02a21075     	setc.nei	a2, 42
700026f4: 04a4         	C.BSTART.STD	COND, 0x70002788 <.LBB1_65>
700026f6: 0021cf99     	lbui	[a1, 2], 	->t
700026fa: 030c1215     	subi	t#1, 48, 	->a2
700026fe: fa56         	c.movi	9, 	->t
70002700: 004c6065     	setc.ltu	t#1, a2
70002704: 0424         	C.BSTART.STD	COND, 0x70002788 <.LBB1_65>
70002706: 0031cf99     	lbui	[a1, 3], 	->t
7000270a: 024c1075     	setc.nei	t#1, 36
7000270e: 0544         	C.BSTART.STD	COND, 0x700027b6 <.LBB1_70>
70002710: 03f6         	c.setc.ne	s4, zero
70002712: 81f22267     	bic	a2, 32, 32, 	->a2
70002716: 0572         	C.BSTART.STD	DIRECT, 0x700027c4 <.LBB1_71>
70002718: 00b0b299     	ldi	[sp, 88], 	->a3
7000271c: 2042b489     	ld	[a3, a2<<4], 	->a7

0000000070002720 <.LBB1_58>:
; .LBB1_58():
70002720: 0592         	C.BSTART.STD	DIRECT, 0x700027d2 <.LBB1_73>
70002722: a006         	c.movr	zero, 	->x0
70002724: 4fd6         	c.movi	-1, 	->a7

0000000070002726 <.LBB1_59>:
; .LBB1_59():
70002726: 0444         	C.BSTART.STD	COND, 0x700027ae <.LBB1_68>
70002728: 00118195     	addi	a1, 1, 	->a1
7000272c: 03021215     	subi	a2, 48, 	->a2
70002730: a056         	c.movi	1, 	->x0
70002732: fa56         	c.movi	9, 	->t
70002734: 004c6065     	setc.ltu	t#1, a2
70002738: 0800         	C.BSTART.STD	
7000273a: 2806         	c.movr	zero, 	->a3

000000007000273c <.LBB1_61>:
; .LBB1_61():
7000273c: 0194         	C.BSTART.STD	COND, 0x7000276e <.LBB1_63>
7000273e: 4fd6         	c.movi	-1, 	->a7
70002740: 0ccccf97     	lui	52428, 	->t
70002744: cccc0f95     	addi	t#1, 3276, 	->t
70002748: 025c6065     	setc.ltu	t#1, a3.sw
7000274c: 0800         	C.BSTART.STD	
7000274e: fa96         	c.movi	10, 	->t
70002750: 01828fc7     	mul	a3, t#1, 	->t
70002754: 004c0f25     	addw	t#1, a2, 	->u
70002758: 7fffff97     	lui	524287, 	->t
7000275c: fffc0f95     	addi	t#1, 4095, 	->t
70002760: 018d4fa5     	xorw	t#3, t#1, 	->t
70002764: 024c6fc5     	cmp.ltu	t#1, a2.sw, 	->t
70002768: ffd6         	c.movi	-1, 	->t
7000276a: c9cc04f7     	csel	t#2, t#1, u#1, 	->a7

000000007000276e <.LBB1_63>:
; .LBB1_63():
7000276e: fe74         	C.BSTART.STD	COND, 0x7000273c <.LBB1_61>
70002770: 2a46         	c.movr	a7, 	->a3
70002772: 00118315     	addi	a1, 1, 	->a4
70002776: 0011cf99     	lbui	[a1, 1], 	->t
7000277a: 1986         	c.movr	a4, 	->a1
7000277c: 030c1215     	subi	t#1, 48, 	->a2
70002780: 00a26075     	setc.ltui	a2, 10
70002784: 0272         	C.BSTART.STD	DIRECT, 0x700027d2 <.LBB1_73>
70002786: 1986         	c.movr	a4, 	->a1

0000000070002788 <.LBB1_65>:
; .LBB1_65():
70002788: 3f54         	C.BSTART.STD	COND, 0x70002f72 <.LBB1_240>
7000278a: 0060b219     	ldi	[sp, 48], 	->a2
7000278e: 511c         	c.sext.w	a2, ->t
70002790: 0636         	c.setc.ne	t#1, zero
70002792: 0104         	C.BSTART.STD	COND, 0x700027b2 <.LBB1_69>
70002794: 03f6         	c.setc.ne	s4, zero
70002796: 00218195     	addi	a1, 2, 	->a1
7000279a: 0182         	C.BSTART.STD	DIRECT, 0x700027ca <.LBB1_72>
7000279c: 00c0b219     	ldi	[sp, 96], 	->a2
700027a0: 00023f89     	ld	[a2, zero], 	->t
700027a4: 460c         	c.addi	t#1, 8, ->t
700027a6: c0023049     	sd	t#1, [a2, zero<<3]
700027aa: 000ce489     	lwu	[t#2, zero], 	->a7

00000000700027ae <.LBB1_68>:
; .LBB1_68():
700027ae: 0122         	C.BSTART.STD	DIRECT, 0x700027d2 <.LBB1_73>
700027b0: 4806         	c.movr	zero, 	->a7

00000000700027b2 <.LBB1_69>:
; .LBB1_69():
700027b2: 00c2         	C.BSTART.STD	DIRECT, 0x700027ca <.LBB1_72>
700027b4: 4806         	c.movr	zero, 	->a7

00000000700027b6 <.LBB1_70>:
; .LBB1_70():
700027b6: 0800         	C.BSTART.STD	
700027b8: 4806         	c.movr	zero, 	->a7
700027ba: fa96         	c.movi	10, 	->t
700027bc: 00d0b299     	ldi	[sp, 104], 	->a3
700027c0: c042a049     	sw	t#1, [a3, a2<<2]

00000000700027c4 <.LBB1_71>:
; .LBB1_71():
700027c4: 0800         	C.BSTART.STD	
700027c6: 00418195     	addi	a1, 4, 	->a1

00000000700027ca <.LBB1_72>:
; .LBB1_72():
700027ca: 0800         	C.BSTART.STD	
700027cc: ffd6         	c.movi	-1, 	->t
700027ce: 029c4a45     	cmp.lt	t#1, a7.sw, 	->x0

00000000700027d2 <.LBB1_73>:
; .LBB1_73():
700027d2: 0800         	C.BSTART.STD	
700027d4: 80c6         	c.movr	a1, 	->s5
700027d6: 1806         	c.movr	zero, 	->a1

00000000700027d8 <.LBB1_74>:
; .LBB1_74():
700027d8: 39c4         	C.BSTART.STD	COND, 0x70002f10 <.LBB1_227>
700027da: 90c6         	c.movr	a1, 	->s7
700027dc: 00084189     	lbu	[s5, zero], 	->a1
700027e0: 07b19f95     	subi	a1, 123, 	->t
700027e4: 01600795     	addi	zero, 22, 	->s4
700027e8: 03a01f95     	subi	zero, 58, 	->t
700027ec: 018ce065     	setc.ltu	t#2, t#1
700027f0: ff44         	C.BSTART.STD	COND, 0x700027d8 <.LBB1_74>
700027f2: 6c9c         	c.zext.w	s7, ->t
700027f4: 00180815     	addi	s5, 1, 	->s5
700027f8: 03a00f95     	addi	zero, 58, 	->t
700027fc: 018c8fc7     	mul	t#2, t#1, 	->t
; ():
70002800: 00003f87     	addtpc	3, 	->t
70002804: 638c0f95     	addi	t#1, 1592, 	->t
70002808: d608         	c.add	t#1, t#3, ->t
7000280a: 1e08         	c.add	t#1, a1, ->t
7000280c: fbfc4199     	lbui	[t#1, -65], 	->a1
70002810: 00119f95     	subi	a1, 1, 	->t
70002814: 008c6075     	setc.ltui	t#1, 8
70002818: 0064         	C.BSTART.STD	COND, 0x70002824 <.LBB1_81>
7000281a: 01b1d075     	setc.gei	a1, 27
7000281e: 0104         	C.BSTART.STD	COND, 0x7000283e <.LBB1_78>
70002820: 00f6         	c.setc.ne	a1, zero
70002822: 3772         	C.BSTART.STD	DIRECT, 0x70002f10 <.LBB1_227>

0000000070002824 <.LBB1_81>:
; .LBB1_81():
70002824: 00d4         	C.BSTART.STD	COND, 0x7000283e <.LBB1_78>
70002826: 01b19075     	setc.nei	a1, 27
7000282a: 3734         	C.BSTART.STD	COND, 0x70002f10 <.LBB1_227>
7000282c: ffd6         	c.movi	-1, 	->t
7000282e: 002c4065     	setc.lt	t#1, a0
70002832: 0284         	C.BSTART.STD	COND, 0x70002882 <.LBB1_87>
70002834: 9806         	c.movr	zero, 	->s8
70002836: 0090b119     	ldi	[sp, 72], 	->a0
7000283a: 00a6         	c.setc.eq	a0, zero
7000283c: e2b2         	C.BSTART.STD	DIRECT, 0x70002492 <.LBB1_2>

000000007000283e <.LBB1_78>:
; .LBB1_78():
7000283e: 0134         	C.BSTART.STD	COND, 0x70002864 <.LBB1_84>
70002840: 00014075     	setc.lti	a0, 0
70002844: 0574         	C.BSTART.STD	COND, 0x700028f2 <.LBB1_98>
70002846: 81f12167     	bic	a0, 32, 32, 	->a0
7000284a: 0090b219     	ldi	[sp, 72], 	->a2
7000284e: 0136         	c.setc.ne	a2, zero
70002850: 0192         	C.BSTART.STD	DIRECT, 0x70002882 <.LBB1_87>
70002852: 00b0b199     	ldi	[sp, 88], 	->a1
70002856: 20218f85     	add	a1, a0<<4, 	->t
7000285a: 2021bf89     	ld	[a1, a0<<4], 	->t
7000285e: 707a         	c.sdi	t#1, [sp, 112]
70002860: 0e5a         	c.ldi	[t#2, 8], ->t
70002862: 787a         	c.sdi	t#1, [sp, 120]

0000000070002864 <.LBB1_84>:
; .LBB1_84():
70002864: 38d4         	C.BSTART.STD	COND, 0x70002f7e <.LBB1_241>
70002866: 0090b119     	ldi	[sp, 72], 	->a0
7000286a: 00b6         	c.setc.ne	a0, zero
7000286c: 3992         	C.BSTART.STD	DIRECT, 0x70002f9e <pop_arg>
7000286e: 51d6         	c.setret	0x7000287c, ->ra <.LBB1_84+0x18>
70002870: 9d06         	c.movr	x0, 	->s8
70002872: 7a46         	c.movr	a7, 	->s4
70002874: 00c0b219     	ldi	[sp, 96], 	->a2
70002878: 07008115     	addi	sp, 112, 	->a0
; ():
7000287c: 0800         	C.BSTART.STD	
7000287e: 4bc6         	c.movr	s4, 	->a7
70002880: a4c6         	c.movr	s8, 	->x0

0000000070002882 <.LBB1_87>:
; .LBB1_87():
70002882: 3734         	C.BSTART.STD	COND, 0x70002f68 <.LBB1_238>
70002884: 00a0b119     	ldi	[sp, 80], 	->a0
70002888: 00014f89     	lbu	[a0, zero], 	->t
7000288c: 020c2075     	setc.andi	t#1, 32
70002890: 0244         	C.BSTART.STD	COND, 0x700028d8 <.LBB1_93>
70002892: fff84f19     	lbui	[s5, -1], 	->u
70002896: 13be2fe7     	bic	u#1, 4, 60, 	->t
7000289a: 00ec         	c.cmp.eqi	t#1, 3, ->t
7000289c: 549c         	c.sext.w	s7, ->t
7000289e: 082c         	c.cmp.nei	t#1, 0, ->t
700028a0: d628         	c.and	t#1, t#3, ->t
700028a2: 0dfe2f95     	andi	u#1, 223, 	->t
700028a6: c9cc0477     	csel	t#2, t#1, u#1, 	->a6
700028aa: 06545075     	setc.gei	a6, 101
700028ae: 00002f97     	lui	2, 	->t
700028b2: c2e8         	c.and	s0, t#1, ->t
700028b4: 002c         	c.cmp.eqi	t#1, 0, ->t
700028b6: 4005a9e7     	bic	s0, 16, 1, 	->s8
700028ba: c13583f7     	csel	t#1, s0, s8, 	->a5
700028be: 0214         	C.BSTART.STD	COND, 0x70002900 <.LBB1_99>
700028c0: 05845075     	setc.gei	a6, 88
700028c4: 0504         	C.BSTART.STD	COND, 0x70002964 <.LBB1_109>
700028c6: 04545075     	setc.gei	a6, 69
700028ca: 0a54         	C.BSTART.STD	COND, 0x70002a14 <.LBB1_125>
700028cc: 04345075     	setc.gei	a6, 67
700028d0: 0d34         	C.BSTART.STD	COND, 0x70002a76 <.LBB1_133>
700028d2: 04140075     	setc.eqi	a6, 65
700028d6: 1ca2         	C.BSTART.STD	DIRECT, 0x70002c6a <.LBB1_97>

00000000700028d8 <.LBB1_93>:
; .LBB1_93():
700028d8: 01e4         	C.BSTART.STD	COND, 0x70002914 <.LBB1_102>
700028da: 06f45075     	setc.gei	a6, 111
700028de: 04a4         	C.BSTART.STD	COND, 0x70002972 <.LBB1_111>
700028e0: 06d45075     	setc.gei	a6, 109
700028e4: 0aa4         	C.BSTART.STD	COND, 0x70002a38 <.LBB1_128>
700028e6: 06945075     	setc.gei	a6, 105
700028ea: 0c64         	C.BSTART.STD	COND, 0x70002a76 <.LBB1_133>
700028ec: 06844075     	setc.lti	a6, 104
700028f0: 1bd2         	C.BSTART.STD	DIRECT, 0x70002c6a <.LBB1_97>

00000000700028f2 <.LBB1_98>:
; .LBB1_98():
700028f2: dd02         	C.BSTART.STD	DIRECT, 0x70002492 <.LBB1_2>
700028f4: 9806         	c.movr	zero, 	->s8
700028f6: f8c6         	c.movr	a1, 	->t
700028f8: 00d0b199     	ldi	[sp, 104], 	->a1
700028fc: c021a049     	sw	t#1, [a1, a0<<2]

0000000070002900 <.LBB1_99>:
; .LBB1_99():
70002900: 0474         	C.BSTART.STD	COND, 0x7000298e <.LBB1_115>
70002902: 06345075     	setc.gei	a6, 99
70002906: 0b54         	C.BSTART.STD	COND, 0x70002a70 <.LBB1_132>
70002908: 06145075     	setc.gei	a6, 97
7000290c: 1af4         	C.BSTART.STD	COND, 0x70002c6a <.LBB1_97>
7000290e: 05841075     	setc.nei	a6, 88
70002912: 1842         	C.BSTART.STD	DIRECT, 0x70002c1a <.LBB1_172>

0000000070002914 <.LBB1_102>:
; .LBB1_102():
70002914: 0514         	C.BSTART.STD	COND, 0x700029b6 <.LBB1_118>
70002916: 07345075     	setc.gei	a6, 115
7000291a: 0c94         	C.BSTART.STD	COND, 0x70002aac <.LBB1_136>
7000291c: 07045075     	setc.gei	a6, 112
70002920: 0194         	C.BSTART.STD	COND, 0x70002952 <.LBB1_107>
70002922: 0080b899     	ldi	[sp, 64], 	->s6
70002926: 00e0b199     	ldi	[sp, 112], 	->a1
7000292a: 00e6         	c.setc.eq	a1, zero
7000292c: 0800         	C.BSTART.STD	
7000292e: 0080b119     	ldi	[sp, 64], 	->a0

0000000070002932 <.LBB1_106>:
; .LBB1_106():
70002932: 0004         	C.BSTART.STD	COND, 0x70002932 <.LBB1_106>
70002934: f8c6         	c.movr	a1, 	->t
70002936: 0fc1afe7     	bic	a1, 3, 61, 	->t
7000293a: 101c3fe7     	bis	t#1, 4, 2, 	->t
7000293e: fe2c0fd9     	sbi	t#1, [a0, -1]
70002942: 00111895     	subi	a0, 1, 	->s6
70002946: 1446         	c.movr	s6, 	->a0
70002948: 0031d195     	srli	a1, 3, 	->a1
7000294c: f9d6         	c.movi	7, 	->t
7000294e: 01bc6065     	setc.ltu	t#1, t#4

0000000070002952 <.LBB1_107>:
; .LBB1_107():
70002952: 14a4         	C.BSTART.STD	COND, 0x70002be6 <.LBB1_166>
70002954: 0083a075     	setc.andi	a5, 8
; ():
70002958: 00003107     	addtpc	3, 	->a0
7000295c: 1d12         	C.BSTART.STD	DIRECT, 0x70002cfe <.LBB1_187>
7000295e: 3006         	c.movr	zero, 	->a4
70002960: 40810415     	addi	a0, 1032, 	->a6

0000000070002964 <.LBB1_109>:
; .LBB1_109():
70002964: 0b34         	C.BSTART.STD	COND, 0x70002aca <.LBB1_138>
70002966: 05345075     	setc.gei	a6, 83
7000296a: 0864         	C.BSTART.STD	COND, 0x70002a76 <.LBB1_133>
7000296c: 04844075     	setc.lti	a6, 72
70002970: 17d2         	C.BSTART.STD	DIRECT, 0x70002c6a <.LBB1_97>

0000000070002972 <.LBB1_111>:
; .LBB1_111():
70002972: 1124         	C.BSTART.STD	COND, 0x70002b96 <.LBB1_158>
70002974: 06e45075     	setc.gei	a6, 110
70002978: bd02         	C.BSTART.STD	DIRECT, 0x70002118 <__errno_location>
7000297a: 5096         	c.setret	0x7000297e, ->ra <.LBB1_111+0xc>
7000297c: 5a46         	c.movr	a7, 	->s0
; ():
7000297e: 0006ff91     	BSTART.STD	DIRECT, 0x7000457c <strerror>
70002982: 50d6         	c.setret	0x70002988, ->ra <.LBB1_111+0x16>
70002984: 00012109     	lw	[a0, zero], 	->a0
70002988: 0262         	C.BSTART.STD	DIRECT, 0x700029d4 <.LBB1_121>
7000298a: 8886         	c.movr	a0, 	->s6
7000298c: 4ac6         	c.movr	s0, 	->a7

000000007000298e <.LBB1_115>:
; .LBB1_115():
7000298e: 0584         	C.BSTART.STD	COND, 0x70002a3e <.LBB1_129>
70002990: 06445075     	setc.gei	a6, 100
70002994: 0800         	C.BSTART.STD	
70002996: 00e0b119     	ldi	[sp, 112], 	->a0

000000007000299a <.LBB1_117>:
; .LBB1_117():
7000299a: 1d82         	C.BSTART.STD	DIRECT, 0x70002d4a <.LBB1_191>
7000299c: 0080b199     	ldi	[sp, 64], 	->a1
700029a0: 0070b899     	ldi	[sp, 56], 	->s6
700029a4: 3cc6         	c.movr	s8, 	->a5
700029a6: 3006         	c.movr	zero, 	->a4
700029a8: 4e1100d9     	sbi	a0, [sp, 167]
; ():
700029ac: 00003f87     	addtpc	3, 	->t
700029b0: 3b4c0415     	addi	t#1, 948, 	->a6
700029b4: 4856         	c.movi	1, 	->a7

00000000700029b6 <.LBB1_118>:
; .LBB1_118():
700029b6: 1004         	C.BSTART.STD	COND, 0x70002bb6 <.LBB1_162>
700029b8: 07545075     	setc.gei	a6, 117
700029bc: 1574         	C.BSTART.STD	COND, 0x70002c6a <.LBB1_97>
700029be: 07341075     	setc.nei	a6, 115
700029c2: 0800         	C.BSTART.STD	
700029c4: 705a         	c.ldi	[sp, 112], ->t
700029c6: 002c         	c.cmp.eqi	t#1, 0, ->t
; ():
700029c8: 00003f87     	addtpc	3, 	->t
700029cc: 360c0f95     	addi	t#1, 864, 	->t
700029d0: d1bc08f7     	csel	t#3, t#1, t#4, 	->s6

00000000700029d4 <.LBB1_121>:
; .LBB1_121():
700029d4: 000c6611     	BSTART.STD	DIRECT, 0x70005b6c <strnlen>
700029d8: 5316         	c.setret	0x700029f0, ->ra <.LBB1_121+0x1c>
700029da: 525c         	c.sext.w	a7, ->t
700029dc: 7fffff97     	lui	524287, 	->t
700029e0: fffc0f95     	addi	t#1, 4095, 	->t
700029e4: 018d6fc5     	cmp.ltu	t#3, t#1, 	->t
700029e8: c19d81f7     	csel	t#1, t#4, t#2, 	->a1
700029ec: 1446         	c.movr	s6, 	->a0
700029ee: 5a46         	c.movr	a7, 	->s0
; ():
700029f0: 00a4         	C.BSTART.STD	COND, 0x70002a04 <.LBB1_124>
700029f2: 00288185     	add	s6, a0, 	->a1
700029f6: ffd6         	c.movi	-1, 	->t
700029f8: 02bc4065     	setc.lt	t#1, s0.sw
700029fc: 2cb4         	C.BSTART.STD	COND, 0x70002f92 <.LBB1_245>
700029fe: 0001cf89     	lbu	[a1, zero], 	->t
70002a02: 0636         	c.setc.ne	t#1, zero

0000000070002a04 <.LBB1_124>:
; .LBB1_124():
70002a04: 1a32         	C.BSTART.STD	DIRECT, 0x70002d4a <.LBB1_191>
70002a06: 3cc6         	c.movr	s8, 	->a5
70002a08: 4886         	c.movr	a0, 	->a7
70002a0a: 3006         	c.movr	zero, 	->a4
; ():
70002a0c: 00003f87     	addtpc	3, 	->t
70002a10: 354c0415     	addi	t#1, 852, 	->a6

0000000070002a14 <.LBB1_125>:
; .LBB1_125():
70002a14: 12b4         	C.BSTART.STD	COND, 0x70002c6a <.LBB1_97>
70002a16: 04341075     	setc.nei	a6, 67
70002a1a: 2094         	C.BSTART.STD	COND, 0x70002e2c <.LBB1_204>
70002a1c: 00e0b119     	ldi	[sp, 112], 	->a0
70002a20: 00a6         	c.setc.eq	a0, zero
70002a22: 05f2         	C.BSTART.STD	DIRECT, 0x70002ae0 <.LBB1_141>
70002a24: 91c6         	c.movr	a5, 	->s7
70002a26: 44112059     	swi	a0, [sp, 136]
70002a2a: 46102059     	swi	zero, [sp, 140]
70002a2e: 08808715     	addi	sp, 136, 	->s3
70002a32: 1c173059     	sdi	s3, [sp, 112]
70002a36: 7fd6         	c.movi	-1, 	->s4

0000000070002a38 <.LBB1_128>:
; .LBB1_128():
70002a38: 1194         	C.BSTART.STD	COND, 0x70002c6a <.LBB1_97>
70002a3a: 06941075     	setc.nei	a6, 105

0000000070002a3e <.LBB1_129>:
; .LBB1_129():
70002a3e: 0ca4         	C.BSTART.STD	COND, 0x70002bd2 <.LBB1_165>
70002a40: 00e0b119     	ldi	[sp, 112], 	->a0
70002a44: ffd6         	c.movi	-1, 	->t
70002a46: 002c5065     	setc.ge	t#1, a0
70002a4a: 1184         	C.BSTART.STD	COND, 0x70002c7a <.LBB1_177>
70002a4c: 80000f95     	addi	zero, 2048, 	->t
70002a50: 0183a065     	setc.and	a5, t#1
; ():
70002a54: 00003187     	addtpc	3, 	->a1
70002a58: 1152         	C.BSTART.STD	DIRECT, 0x70002c82 <.LBB1_178>
70002a5a: 07e3a367     	bic	a5, 1, 63, 	->a4
70002a5e: 00030fd5     	cmp.eqi	a4, 0, 	->t
70002a62: 00003f87     	addtpc	3, 	->t
70002a66: 2fec0f95     	addi	t#1, 766, 	->t
70002a6a: 160c         	c.addi	t#1, 2, ->t
70002a6c: d98c8477     	csel	t#4, t#2, t#1, 	->a6

0000000070002a70 <.LBB1_132>:
; .LBB1_132():
70002a70: 0fd4         	C.BSTART.STD	COND, 0x70002c6a <.LBB1_97>
70002a72: 06141075     	setc.nei	a6, 97

0000000070002a76 <.LBB1_133>:
; .LBB1_133():
70002a76: 28b4         	C.BSTART.STD	COND, 0x70002f8c <.LBB1_244>
70002a78: 000a1fd5     	cmp.nei	x0, 0, 	->t
70002a7c: 02903305     	or	zero, a7.sw, 	->a4
70002a80: 00034fd5     	cmp.lti	a4, 0, 	->t
70002a84: 018ca065     	setc.and	t#2, t#1
70002a88: 3e02         	C.BSTART.STD	DIRECT, 0x70003248 <fmt_fp>
70002a8a: 5296         	c.setret	0x70002a9e, ->ra <.LBB1_133+0x28>
70002a8c: 00f0b219     	ldi	[sp, 120], 	->a2
70002a90: 00e0b199     	ldi	[sp, 112], 	->a1
70002a94: 4c86         	c.movr	s7, 	->a7
70002a96: 02c03285     	or	zero, s1.sw, 	->a3
70002a9a: 02703385     	or	zero, a5.sw, 	->a5
; ():
70002a9e: cfa4         	C.BSTART.STD	COND, 0x70002492 <.LBB1_2>
70002aa0: 9886         	c.movr	a0, 	->s8
70002aa2: 0009d075     	setc.gei	s8, 0
70002aa6: 04b00795     	addi	zero, 75, 	->s4
70002aaa: 2332         	C.BSTART.STD	DIRECT, 0x70002f10 <.LBB1_227>

0000000070002aac <.LBB1_136>:
; .LBB1_136():
70002aac: 0df4         	C.BSTART.STD	COND, 0x70002c6a <.LBB1_97>
70002aae: 07041075     	setc.nei	a6, 112
70002ab2: 0b42         	C.BSTART.STD	DIRECT, 0x70002c1a <.LBB1_172>
70002ab4: 01000f95     	addi	zero, 16, 	->t
70002ab8: 029c6fc5     	cmp.ltu	t#1, a7.sw, 	->t
70002abc: 525c         	c.sext.w	a7, ->t
70002abe: c9ac04f7     	csel	t#2, t#1, t#3, 	->a7
70002ac2: 0c03b3e7     	bis	a5, 3, 1, 	->a5
70002ac6: 07800415     	addi	zero, 120, 	->a6

0000000070002aca <.LBB1_138>:
; .LBB1_138():
70002aca: 0d04         	C.BSTART.STD	COND, 0x70002c6a <.LBB1_97>
70002acc: 05341075     	setc.nei	a6, 83
70002ad0: 1b04         	C.BSTART.STD	COND, 0x70002e30 <.LBB1_205>
70002ad2: 91c6         	c.movr	a5, 	->s7
70002ad4: 02903785     	or	zero, a7.sw, 	->s4
70002ad8: 03e6         	c.setc.eq	s4, zero
70002ada: 0800         	C.BSTART.STD	
70002adc: 00e0b719     	ldi	[sp, 112], 	->s3

0000000070002ae0 <.LBB1_141>:
; .LBB1_141():
70002ae0: 0800         	C.BSTART.STD	
70002ae2: 8b86         	c.movr	s3, 	->s6
70002ae4: 5806         	c.movr	zero, 	->s0

0000000070002ae6 <.LBB1_142>:
; .LBB1_142():
70002ae6: 01a4         	C.BSTART.STD	COND, 0x70002b1a <.LBB1_147>
70002ae8: 0008e109     	lwu	[s6, zero], 	->a0
70002aec: 00a6         	c.setc.eq	a0, zero
70002aee: 0006b891     	BSTART.STD	DIRECT, 0x700045d0 <wctomb>
70002af2: 5156         	c.setret	0x70002afc, ->ra <.LBB1_142+0x16>
70002af4: 02203185     	or	zero, a0.sw, 	->a1
70002af8: 08008115     	addi	sp, 128, 	->a0
; ():
70002afc: 2434         	C.BSTART.STD	COND, 0x70002f82 <.LBB1_242>
70002afe: 00014075     	setc.lti	a0, 0
70002b02: 00c4         	C.BSTART.STD	COND, 0x70002b1a <.LBB1_147>
70002b04: 5bd8         	c.sub	s4, s0, ->t
70002b06: 042c6065     	setc.ltu	t#1, a0.uw
70002b0a: fee4         	C.BSTART.STD	COND, 0x70002ae6 <.LBB1_142>
70002b0c: 00488895     	addi	s6, 4, 	->s6
70002b10: 689c         	c.zext.w	a0, ->t
70002b12: 01858585     	add	s0, t#1, 	->s0
70002b16: 00f5e065     	setc.ltu	s0, s4

0000000070002b1a <.LBB1_147>:
; .LBB1_147():
70002b1a: 1fb4         	C.BSTART.STD	COND, 0x70002f10 <.LBB1_227>
70002b1c: 01f5df95     	srli	s0, 31, 	->t
70002b20: 0636         	c.setc.ne	t#1, zero
70002b22: 04b00795     	addi	zero, 75, 	->s4
70002b26: 33e2         	C.BSTART.STD	DIRECT, 0x700031a2 <pad>
70002b28: 5316         	c.setret	0x70002b40, ->ra <.LBB1_147+0x26>
70002b2a: 00a0b799     	ldi	[sp, 80], 	->s4
70002b2e: 13c6         	c.movr	s4, 	->a0
70002b30: 02c03205     	or	zero, s1.sw, 	->a2
70002b34: 02b03285     	or	zero, s0.sw, 	->a3
70002b38: 03203305     	or	zero, s7.sw, 	->a4
70002b3c: 02000195     	addi	zero, 32, 	->a1
; ():
70002b40: 18b4         	C.BSTART.STD	COND, 0x70002e56 <.LBB1_208>
70002b42: 02e6         	c.setc.eq	s0, zero
70002b44: 0800         	C.BSTART.STD	
70002b46: 7806         	c.movr	zero, 	->s4

0000000070002b48 <.LBB1_151>:
; .LBB1_151():
70002b48: 1a04         	C.BSTART.STD	COND, 0x70002e88 <.LBB1_214>
70002b4a: 00076109     	lwu	[s3, zero], 	->a0
70002b4e: 00a6         	c.setc.eq	a0, zero
70002b50: 0006a011     	BSTART.STD	DIRECT, 0x700045d0 <wctomb>
70002b54: 5156         	c.setret	0x70002b5e, ->ra <.LBB1_151+0x16>
70002b56: 02203185     	or	zero, a0.sw, 	->a1
70002b5a: 08008115     	addi	sp, 128, 	->a0
; ():
70002b5e: 1984         	C.BSTART.STD	COND, 0x70002e8e <.LBB1_215>
70002b60: 00278785     	add	s4, a0, 	->s4
70002b64: 00f5e065     	setc.ltu	s0, s4
70002b68: 00f4         	C.BSTART.STD	COND, 0x70002b86 <.LBB1_156>
70002b6a: 00a0b199     	ldi	[sp, 80], 	->a1
70002b6e: 0001cf89     	lbu	[a1, zero], 	->t
70002b72: 020c2075     	setc.andi	t#1, 32
70002b76: 00062a91     	BSTART.STD	DIRECT, 0x70004420 <__fwritex>
70002b7a: 5196         	c.setret	0x70002b86, ->ra <.LBB1_156>
70002b7c: 1886         	c.movr	a0, 	->a1
70002b7e: 00a0b219     	ldi	[sp, 80], 	->a2
70002b82: 08008115     	addi	sp, 128, 	->a0

0000000070002b86 <.LBB1_156>:
70002b86: fe14         	C.BSTART.STD	COND, 0x70002b48 <.LBB1_151>
70002b88: 00b7e065     	setc.ltu	s4, s0
70002b8c: 00470715     	addi	s3, 4, 	->s3
70002b90: 1822         	C.BSTART.STD	DIRECT, 0x70002e94 <.LBB1_216>
70002b92: 00a0b799     	ldi	[sp, 80], 	->s4

0000000070002b96 <.LBB1_158>:
; .LBB1_158():
70002b96: 0344         	C.BSTART.STD	COND, 0x70002bfe <.LBB1_168>
70002b98: 23792167     	bic	s7, 8, 56, 	->a0
70002b9c: 00315075     	setc.gei	a0, 3
70002ba0: 1564         	C.BSTART.STD	COND, 0x70002e4c <.LBB1_207>
70002ba2: 00114075     	setc.lti	a0, 1
70002ba6: 15a4         	C.BSTART.STD	COND, 0x70002e5a <.LBB1_209>
70002ba8: 00215075     	setc.gei	a0, 2
70002bac: c732         	C.BSTART.STD	DIRECT, 0x70002492 <.LBB1_2>
70002bae: 9806         	c.movr	zero, 	->s8
70002bb0: 705a         	c.ldi	[sp, 112], ->t
70002bb2: 680c3049     	sd	s2, [t#1, zero<<3]

0000000070002bb6 <.LBB1_162>:
; .LBB1_162():
70002bb6: 02f4         	C.BSTART.STD	COND, 0x70002c14 <.LBB1_171>
70002bb8: 07845075     	setc.gei	a6, 120
70002bbc: 0574         	C.BSTART.STD	COND, 0x70002c6a <.LBB1_97>
70002bbe: 07541075     	setc.nei	a6, 117
70002bc2: 0602         	C.BSTART.STD	DIRECT, 0x70002c82 <.LBB1_178>
70002bc4: 3006         	c.movr	zero, 	->a4
; ():
70002bc6: 00003f87     	addtpc	3, 	->t
70002bca: 19ac0415     	addi	t#1, 410, 	->a6
70002bce: 00e0b119     	ldi	[sp, 112], 	->a0

0000000070002bd2 <.LBB1_165>:
; .LBB1_165():
70002bd2: 0582         	C.BSTART.STD	DIRECT, 0x70002c82 <.LBB1_178>
70002bd4: 00201105     	sub	zero, a0, 	->a0
70002bd8: 1c113059     	sdi	a0, [sp, 112]
; ():
70002bdc: 00003f87     	addtpc	3, 	->t
70002be0: 184c0415     	addi	t#1, 388, 	->a6
70002be4: 3056         	c.movi	1, 	->a4

0000000070002be6 <.LBB1_166>:
; .LBB1_166():
70002be6: 0844         	C.BSTART.STD	COND, 0x70002cee <.LBB1_186>
70002be8: 405a         	c.ldi	[sp, 64], ->t
70002bea: 011c1105     	sub	t#1, s6, 	->a0
70002bee: 02915065     	setc.ge	a0, a7.sw
; ():
70002bf2: 00003187     	addtpc	3, 	->a1
70002bf6: 0842         	C.BSTART.STD	DIRECT, 0x70002cfe <.LBB1_187>
70002bf8: 3006         	c.movr	zero, 	->a4
70002bfa: 16e18415     	addi	a1, 366, 	->a6

0000000070002bfe <.LBB1_168>:
; .LBB1_168():
70002bfe: 10f4         	C.BSTART.STD	COND, 0x70002e1c <.LBB1_202>
70002c00: 00615075     	setc.gei	a0, 6
70002c04: 1304         	C.BSTART.STD	COND, 0x70002e64 <.LBB1_210>
70002c06: 00415075     	setc.gei	a0, 4
70002c0a: c442         	C.BSTART.STD	DIRECT, 0x70002492 <.LBB1_2>
70002c0c: 9806         	c.movr	zero, 	->s8
70002c0e: 705a         	c.ldi	[sp, 112], ->t
70002c10: 680c1049     	sh	s2, [t#1, zero<<1]

0000000070002c14 <.LBB1_171>:
; .LBB1_171():
70002c14: 02b4         	C.BSTART.STD	COND, 0x70002c6a <.LBB1_97>
70002c16: 07841075     	setc.nei	a6, 120

0000000070002c1a <.LBB1_172>:
; .LBB1_172():
70002c1a: 05a4         	C.BSTART.STD	COND, 0x70002cce <.LBB1_184>
70002c1c: 00e0b199     	ldi	[sp, 112], 	->a1
70002c20: 00e6         	c.setc.eq	a1, zero
; ():
70002c22: 00003107     	addtpc	3, 	->a0
70002c26: 0800         	C.BSTART.STD	
70002c28: 0080b899     	ldi	[sp, 64], 	->s6
70002c2c: 02042115     	andi	a6, 32, 	->a0

0000000070002c30 <.LBB1_174>:
; .LBB1_174():
70002c30: 0004         	C.BSTART.STD	COND, 0x70002c30 <.LBB1_174>
70002c32: f0c6         	c.movr	a1, 	->u
70002c34: 13b1afe7     	bic	a1, 4, 60, 	->t
; ():
70002c38: 00003f87     	addtpc	3, 	->t
70002c3c: 3d0c0f95     	addi	t#1, 976, 	->t
70002c40: 01ac0f89     	lb	[t#1, t#3], 	->t
70002c44: 1638         	c.or	t#1, a0, ->t
70002c46: ff1c0fd9     	sbi	t#1, [s6, -1]
70002c4a: 00189895     	subi	s6, 1, 	->s6
70002c4e: 0041d195     	srli	a1, 4, 	->a1
70002c52: fbd6         	c.movi	15, 	->t
70002c54: 01cc6065     	setc.ltu	t#1, u#1
70002c58: 0414         	C.BSTART.STD	COND, 0x70002cda <.LBB1_185>
70002c5a: 0083a075     	setc.andi	a5, 8
70002c5e: 00003107     	addtpc	3, 	->a0
70002c62: 04e2         	C.BSTART.STD	DIRECT, 0x70002cfe <.LBB1_187>
70002c64: 3006         	c.movr	zero, 	->a4
70002c66: 10210415     	addi	a0, 258, 	->a6

0000000070002c6a <.LBB1_97>:
; .LBB1_97():
70002c6a: 0702         	C.BSTART.STD	DIRECT, 0x70002d4a <.LBB1_191>
70002c6c: 0080b199     	ldi	[sp, 64], 	->a1
70002c70: 3006         	c.movr	zero, 	->a4
; ():
70002c72: 00003f87     	addtpc	3, 	->t
70002c76: 0eec0415     	addi	t#1, 238, 	->a6

0000000070002c7a <.LBB1_177>:
; .LBB1_177():
70002c7a: 0800         	C.BSTART.STD	
70002c7c: 30d18415     	addi	a1, 781, 	->a6
70002c80: 3056         	c.movi	1, 	->a4

0000000070002c82 <.LBB1_178>:
; .LBB1_178():
70002c82: 01a4         	C.BSTART.STD	COND, 0x70002cb6 <.LBB1_181>
70002c84: 00a16075     	setc.ltui	a0, 10
70002c88: 0800         	C.BSTART.STD	
70002c8a: 0080b199     	ldi	[sp, 64], 	->a1

0000000070002c8e <.LBB1_180>:
; .LBB1_180():
70002c8e: 0004         	C.BSTART.STD	COND, 0x70002c8e <.LBB1_180>
70002c90: f086         	c.movr	a0, 	->u
70002c92: fa96         	c.movi	10, 	->t
70002c94: 01811157     	divu	a0, t#1, 	->a0
70002c98: 01810fc7     	mul	a0, t#1, 	->t
70002c9c: c718         	c.sub	u#1, t#1, ->t
70002c9e: 101c3fe7     	bis	t#1, 4, 2, 	->t
70002ca2: fe3c0fd9     	sbi	t#1, [a1, -1]
70002ca6: 00119895     	subi	a1, 1, 	->s6
70002caa: 1c46         	c.movr	s6, 	->a1
70002cac: 06300f95     	addi	zero, 99, 	->t
70002cb0: 01cc6065     	setc.ltu	t#1, u#1
70002cb4: 0042         	C.BSTART.STD	DIRECT, 0x70002cbc <.LBB1_182>

0000000070002cb6 <.LBB1_181>:
; .LBB1_181():
70002cb6: 0800         	C.BSTART.STD	
70002cb8: 0080b899     	ldi	[sp, 64], 	->s6

0000000070002cbc <.LBB1_182>:
; .LBB1_182():
70002cbc: 0214         	C.BSTART.STD	COND, 0x70002cfe <.LBB1_187>
70002cbe: 00a6         	c.setc.eq	a0, zero
70002cc0: 01f2         	C.BSTART.STD	DIRECT, 0x70002cfe <.LBB1_187>
70002cc2: 03010f95     	addi	a0, 48, 	->t
70002cc6: ff1c0fd9     	sbi	t#1, [s6, -1]
70002cca: 00189895     	subi	s6, 1, 	->s6

0000000070002cce <.LBB1_184>:
; .LBB1_184():
70002cce: 0182         	C.BSTART.STD	DIRECT, 0x70002cfe <.LBB1_187>
70002cd0: 0080b899     	ldi	[sp, 64], 	->s6
70002cd4: 3006         	c.movr	zero, 	->a4
70002cd6: 13e10415     	addi	a0, 318, 	->a6

0000000070002cda <.LBB1_185>:
; .LBB1_185():
70002cda: 0122         	C.BSTART.STD	DIRECT, 0x70002cfe <.LBB1_187>
70002cdc: 00445f95     	srli	a6, 4, 	->t
; ():
70002ce0: 00003f87     	addtpc	3, 	->t
70002ce4: 080c0f95     	addi	t#1, 128, 	->t
70002ce8: 01ac0405     	add	t#1, t#3, 	->a6
70002cec: 3096         	c.movi	2, 	->a4

0000000070002cee <.LBB1_186>:
; .LBB1_186():
70002cee: 0800         	C.BSTART.STD	
70002cf0: 3006         	c.movr	zero, 	->a4
; ():
70002cf2: 00003f87     	addtpc	3, 	->t
70002cf6: 06ec0415     	addi	t#1, 110, 	->a6
70002cfa: 00110495     	addi	a0, 1, 	->a7

0000000070002cfe <.LBB1_187>:
; .LBB1_187():
70002cfe: 1444         	C.BSTART.STD	COND, 0x70002f86 <.LBB1_243>
70002d00: 000a11d5     	cmp.nei	x0, 0, 	->a1
70002d04: 02903105     	or	zero, a7.sw, 	->a0
70002d08: 00014fd5     	cmp.lti	a0, 0, 	->t
70002d0c: 0181a065     	setc.and	a1, t#1
70002d10: 0184         	C.BSTART.STD	COND, 0x70002d40 <.LBB1_190>
70002d12: 4003afe7     	bic	a5, 16, 1, 	->t
70002d16: 187c03f7     	csel	a1, t#1, a5, 	->a5
70002d1a: 00e0b219     	ldi	[sp, 112], 	->a2
70002d1e: 02923f85     	or	a2, a7.sw, 	->t
70002d22: 0626         	c.setc.eq	t#1, zero
70002d24: 0132         	C.BSTART.STD	DIRECT, 0x70002d4a <.LBB1_191>
70002d26: 0080b299     	ldi	[sp, 64], 	->a3
70002d2a: 1946         	c.movr	a3, 	->a1
70002d2c: 00021fd5     	cmp.nei	a2, 0, 	->t
70002d30: 001c4f95     	xori	t#1, 1, 	->t
70002d34: 8958         	c.sub	a3, s6, ->t
70002d36: ce08         	c.add	t#1, t#2, ->t
70002d38: 01814fc5     	cmp.lt	a0, t#1, 	->t
70002d3c: c02c84f7     	csel	t#1, t#2, a0, 	->a7

0000000070002d40 <.LBB1_190>:
; .LBB1_190():
70002d40: 0800         	C.BSTART.STD	
70002d42: 0080b899     	ldi	[sp, 64], 	->s6
70002d46: 1c46         	c.movr	s6, 	->a1
70002d48: 4806         	c.movr	zero, 	->a7

0000000070002d4a <.LBB1_191>:
; .LBB1_191():
70002d4a: 1114         	C.BSTART.STD	COND, 0x70002f6c <.LBB1_239>
70002d4c: 525c         	c.sext.w	a7, ->t
70002d4e: 01119185     	sub	a1, s6, 	->a1
70002d52: 003c4fc5     	cmp.lt	t#1, a1, 	->t
70002d56: c0918177     	csel	t#1, a1, a7, 	->a0
70002d5a: 7fffff97     	lui	524287, 	->t
70002d5e: fffc0f95     	addi	t#1, 4095, 	->t
70002d62: 01834f85     	xor	a4, t#1, 	->t
70002d66: 022c4065     	setc.lt	t#1, a0.sw
70002d6a: 0d34         	C.BSTART.STD	COND, 0x70002f10 <.LBB1_227>
70002d6c: 0a11b059     	sdi	a1, [sp, 40]
70002d70: 02203105     	or	zero, a0.sw, 	->a0
70002d74: 00610925     	addw	a0, a4, 	->s7
70002d78: 02c94fc5     	cmp.lt	s7, s1.sw, 	->t
70002d7c: 531c         	c.sext.w	s1, ->t
70002d7e: c92c09f7     	csel	t#2, t#1, s7, 	->s8
70002d82: 01374065     	setc.lt	s3, s8
70002d86: 04b00795     	addi	zero, 75, 	->s4
70002d8a: 20c2         	C.BSTART.STD	DIRECT, 0x700031a2 <pad>
70002d8c: 53d6         	c.setret	0x70002daa, ->ra <.LBB1_191+0x60>
70002d8e: 08113059     	sdi	a0, [sp, 32]
70002d92: 7a06         	c.movr	a6, 	->s4
70002d94: 7186         	c.movr	a4, 	->s3
70002d96: 00a0b599     	ldi	[sp, 80], 	->s0
70002d9a: 12c6         	c.movr	s0, 	->a0
70002d9c: 24c6         	c.movr	s8, 	->a2
70002d9e: 2c86         	c.movr	s7, 	->a3
70002da0: 61c6         	c.movr	a5, 	->s1
70002da2: 02c03305     	or	zero, s1.sw, 	->a4
70002da6: 02000195     	addi	zero, 32, 	->a1
; ():
70002daa: 00b4         	C.BSTART.STD	COND, 0x70002dc0 <.LBB1_196>
70002dac: 0005cf89     	lbu	[s0, zero], 	->t
70002db0: 020c2075     	setc.andi	t#1, 32
70002db4: 00059b11     	BSTART.STD	DIRECT, 0x70004420 <__fwritex>
70002db8: 5116         	c.setret	0x70002dc0, ->ra <.LBB1_196>
70002dba: 13c6         	c.movr	s4, 	->a0
70002dbc: 1b86         	c.movr	s3, 	->a1
70002dbe: 22c6         	c.movr	s0, 	->a2

0000000070002dc0 <.LBB1_196>:
70002dc0: 1f12         	C.BSTART.STD	DIRECT, 0x700031a2 <pad>
70002dc2: 5296         	c.setret	0x70002dd6, ->ra <.LBB1_196+0x16>
70002dc4: 00010f97     	lui	16, 	->t
70002dc8: 01864325     	xorw	s1, t#1, 	->a4
70002dcc: 12c6         	c.movr	s0, 	->a0
70002dce: 24c6         	c.movr	s8, 	->a2
70002dd0: 2c86         	c.movr	s7, 	->a3
70002dd2: 03000195     	addi	zero, 48, 	->a1
70002dd6: 1e62         	C.BSTART.STD	DIRECT, 0x700031a2 <pad>
70002dd8: 52d6         	c.setret	0x70002dee, ->ra <.LBB1_196+0x2e>
70002dda: 12c6         	c.movr	s0, 	->a0
70002ddc: 0040b219     	ldi	[sp, 32], 	->a2
70002de0: 3006         	c.movr	zero, 	->a4
70002de2: 0050b719     	ldi	[sp, 40], 	->s3
70002de6: 02e03285     	or	zero, s3.sw, 	->a3
70002dea: 03000195     	addi	zero, 48, 	->a1
70002dee: 00b4         	C.BSTART.STD	COND, 0x70002e04 <.LBB1_200>
70002df0: 0005cf89     	lbu	[s0, zero], 	->t
70002df4: 020c2075     	setc.andi	t#1, 32
70002df8: 00058a11     	BSTART.STD	DIRECT, 0x70004420 <__fwritex>
70002dfc: 5116         	c.setret	0x70002e04, ->ra <.LBB1_200>
70002dfe: 1446         	c.movr	s6, 	->a0
70002e00: 1b86         	c.movr	s3, 	->a1
70002e02: 22c6         	c.movr	s0, 	->a2

0000000070002e04 <.LBB1_200>:
70002e04: 1cf2         	C.BSTART.STD	DIRECT, 0x700031a2 <pad>
70002e06: 5296         	c.setret	0x70002e1a, ->ra <.LBB1_200+0x16>
70002e08: 00002f97     	lui	2, 	->t
70002e0c: 01864325     	xorw	s1, t#1, 	->a4
70002e10: 12c6         	c.movr	s0, 	->a0
70002e12: 24c6         	c.movr	s8, 	->a2
70002e14: 2c86         	c.movr	s7, 	->a3
70002e16: 02000195     	addi	zero, 32, 	->a1
70002e1a: b3c2         	C.BSTART.STD	DIRECT, 0x70002492 <.LBB1_2>

0000000070002e1c <.LBB1_202>:
; .LBB1_202():
70002e1c: 02d4         	C.BSTART.STD	COND, 0x70002e76 <.LBB1_212>
70002e1e: 00715075     	setc.gei	a0, 7
70002e22: b382         	C.BSTART.STD	DIRECT, 0x70002492 <.LBB1_2>
70002e24: 9806         	c.movr	zero, 	->s8
70002e26: 705a         	c.ldi	[sp, 112], ->t
70002e28: 680c3049     	sd	s2, [t#1, zero<<3]

0000000070002e2c <.LBB1_204>:
; .LBB1_204():
70002e2c: db72         	C.BSTART.STD	DIRECT, 0x7000299a <.LBB1_117>
70002e2e: 1006         	c.movr	zero, 	->a0

0000000070002e30 <.LBB1_205>:
; .LBB1_205():
70002e30: 1b92         	C.BSTART.STD	DIRECT, 0x700031a2 <pad>
70002e32: 52d6         	c.setret	0x70002e48, ->ra <.LBB1_205+0x18>
70002e34: 00a0b799     	ldi	[sp, 80], 	->s4
70002e38: 13c6         	c.movr	s4, 	->a0
70002e3a: 2806         	c.movr	zero, 	->a3
70002e3c: 02c03205     	or	zero, s1.sw, 	->a2
70002e40: 03203305     	or	zero, s7.sw, 	->a4
70002e44: 02000195     	addi	zero, 32, 	->a1
; ():
70002e48: 0262         	C.BSTART.STD	DIRECT, 0x70002e94 <.LBB1_216>
70002e4a: 5806         	c.movr	zero, 	->s0

0000000070002e4c <.LBB1_207>:
; .LBB1_207():
70002e4c: b232         	C.BSTART.STD	DIRECT, 0x70002492 <.LBB1_2>
70002e4e: 9806         	c.movr	zero, 	->s8
70002e50: 705a         	c.ldi	[sp, 112], ->t
70002e52: 680c2049     	sw	s2, [t#1, zero<<2]

0000000070002e56 <.LBB1_208>:
; .LBB1_208():
70002e56: 01f2         	C.BSTART.STD	DIRECT, 0x70002e94 <.LBB1_216>
70002e58: 5806         	c.movr	zero, 	->s0

0000000070002e5a <.LBB1_209>:
; .LBB1_209():
70002e5a: b1c2         	C.BSTART.STD	DIRECT, 0x70002492 <.LBB1_2>
70002e5c: 9806         	c.movr	zero, 	->s8
70002e5e: 705a         	c.ldi	[sp, 112], ->t
70002e60: 680c3049     	sd	s2, [t#1, zero<<3]

0000000070002e64 <.LBB1_210>:
; .LBB1_210():
70002e64: b174         	C.BSTART.STD	COND, 0x70002492 <.LBB1_2>
70002e66: 00411075     	setc.nei	a0, 4
70002e6a: 9806         	c.movr	zero, 	->s8
70002e6c: b132         	C.BSTART.STD	DIRECT, 0x70002492 <.LBB1_2>
70002e6e: 9806         	c.movr	zero, 	->s8
70002e70: 705a         	c.ldi	[sp, 112], ->t
70002e72: 680c0049     	sb	s2, [t#1, zero]

0000000070002e76 <.LBB1_212>:
; .LBB1_212():
70002e76: b0e4         	C.BSTART.STD	COND, 0x70002492 <.LBB1_2>
70002e78: 00711075     	setc.nei	a0, 7
70002e7c: 9806         	c.movr	zero, 	->s8
70002e7e: b0a2         	C.BSTART.STD	DIRECT, 0x70002492 <.LBB1_2>
70002e80: 9806         	c.movr	zero, 	->s8
70002e82: 705a         	c.ldi	[sp, 112], ->t
70002e84: 680c3049     	sd	s2, [t#1, zero<<3]

0000000070002e88 <.LBB1_214>:
; .LBB1_214():
70002e88: 0062         	C.BSTART.STD	DIRECT, 0x70002e94 <.LBB1_216>
70002e8a: 00a0b799     	ldi	[sp, 80], 	->s4

0000000070002e8e <.LBB1_215>:
; .LBB1_215():
70002e8e: 0800         	C.BSTART.STD	
70002e90: 00a0b799     	ldi	[sp, 80], 	->s4

0000000070002e94 <.LBB1_216>:
; .LBB1_216():
70002e94: 1872         	C.BSTART.STD	DIRECT, 0x700031a2 <pad>
70002e96: 5396         	c.setret	0x70002eb2, ->ra <.LBB1_216+0x1e>
70002e98: 00002f97     	lui	2, 	->t
70002e9c: 01894325     	xorw	s7, t#1, 	->a4
70002ea0: 13c6         	c.movr	s4, 	->a0
70002ea2: 02c03885     	or	zero, s1.sw, 	->s6
70002ea6: 2446         	c.movr	s6, 	->a2
70002ea8: 02b03705     	or	zero, s0.sw, 	->s3
70002eac: 2b86         	c.movr	s3, 	->a3
70002eae: 02000195     	addi	zero, 32, 	->a1
; ():
70002eb2: af02         	C.BSTART.STD	DIRECT, 0x70002492 <.LBB1_2>
70002eb4: 02c74fc5     	cmp.lt	s3, s1.sw, 	->t
70002eb8: c0e889f7     	csel	t#1, s6, s3, 	->s8

0000000070002ebc <.LBB1_218>:
; .LBB1_218():
70002ebc: 02a2         	C.BSTART.STD	DIRECT, 0x70002f10 <.LBB1_227>
70002ebe: 04b00795     	addi	zero, 75, 	->s4

0000000070002ec2 <.LBB1_219>:
; .LBB1_219():
70002ec2: 02d4         	C.BSTART.STD	COND, 0x70002f1c <.LBB1_229>
70002ec4: 03e6         	c.setc.eq	s4, zero
70002ec6: 0374         	C.BSTART.STD	COND, 0x70002f34 <.LBB1_232>
70002ec8: 0060b119     	ldi	[sp, 48], 	->a0
70002ecc: 509c         	c.sext.w	a0, ->t
70002ece: 0626         	c.setc.eq	t#1, zero
70002ed0: 0800         	C.BSTART.STD	
70002ed2: 00b0b119     	ldi	[sp, 88], 	->a0
70002ed6: 01010615     	addi	a0, 16, 	->s1
70002eda: 5856         	c.movi	1, 	->s0
70002edc: 00d0b719     	ldi	[sp, 104], 	->s3
70002ee0: 00c0b699     	ldi	[sp, 96], 	->s2

0000000070002ee4 <.LBB1_222>:
; .LBB1_222():
70002ee4: 02a4         	C.BSTART.STD	COND, 0x70002f38 <.LBB1_233>
70002ee6: 10b76189     	lwu	[s3, s0<<2], 	->a1
70002eea: 00e6         	c.setc.eq	a1, zero
70002eec: 0592         	C.BSTART.STD	DIRECT, 0x70002f9e <pop_arg>
70002eee: 5156         	c.setret	0x70002ef8, ->ra <.LBB1_222+0x14>
70002ef0: 1306         	c.movr	s1, 	->a0
70002ef2: 2346         	c.movr	s2, 	->a2
70002ef4: 02303185     	or	zero, a1.sw, 	->a1
; ():
70002ef8: ff64         	C.BSTART.STD	COND, 0x70002ee4 <.LBB1_222>
70002efa: 00158595     	addi	s0, 1, 	->s0
70002efe: 00a59075     	setc.nei	s0, 10
70002f02: 01060615     	addi	s1, 16, 	->s1
70002f06: 00b2         	C.BSTART.STD	DIRECT, 0x70002f1c <.LBB1_229>
70002f08: 6856         	c.movi	1, 	->s2

0000000070002f0a <.LBB1_226>:
; .LBB1_226():
70002f0a: 0800         	C.BSTART.STD	
70002f0c: 04b00795     	addi	zero, 75, 	->s4

0000000070002f10 <.LBB1_227>:
; .LBB1_227():
70002f10: 9042         	C.BSTART.STD	DIRECT, 0x70002118 <__errno_location>
70002f12: 5056         	c.setret	0x70002f14, ->ra <.LBB1_227+0x4>
; ():
70002f14: 0800         	C.BSTART.STD	
70002f16: 78012049     	sw	s4, [a0, zero<<2]
70002f1a: 6fd6         	c.movi	-1, 	->s2

0000000070002f1c <.LBB1_229>:
; .LBB1_229():
70002f1c: 03e4         	C.BSTART.STD	COND, 0x70002f98 <.LBB1_246>
; ():
70002f1e: 00004f87     	addtpc	4, 	->t
70002f22: afac3fa9     	ldi.u	[t#1, -1286], 	->t
70002f26: 0150bf99     	ldi	[sp, 168], 	->t
70002f2a: c676         	c.setc.ne	t#2, t#1
70002f2c: 0800         	C.BSTART.STD	
70002f2e: 1346         	c.movr	s2, 	->a0
70002f30: 41353041     	FRET.STK	[ra ~ s8], sp!, 256

0000000070002f34 <.LBB1_232>:
; .LBB1_232():
70002f34: ff42         	C.BSTART.STD	DIRECT, 0x70002f1c <.LBB1_229>
70002f36: 6806         	c.movr	zero, 	->s2

0000000070002f38 <.LBB1_233>:
; .LBB1_233():
70002f38: ff24         	C.BSTART.STD	COND, 0x70002f1c <.LBB1_229>
70002f3a: 6856         	c.movi	1, 	->s2
70002f3c: fa56         	c.movi	9, 	->t
70002f3e: 00bc6065     	setc.ltu	t#1, s0

0000000070002f42 <.LBB1_234>:
; .LBB1_234():
70002f42: 00d4         	C.BSTART.STD	COND, 0x70002f5c <.LBB1_236>
70002f44: 10b72f89     	lw	[s3, s0<<2], 	->t
70002f48: 0636         	c.setc.ne	t#1, zero
70002f4a: ffc4         	C.BSTART.STD	COND, 0x70002f42 <.LBB1_234>
70002f4c: 00158595     	addi	s0, 1, 	->s0
70002f50: 00a59075     	setc.nei	s0, 10
70002f54: fe42         	C.BSTART.STD	DIRECT, 0x70002f1c <.LBB1_229>

0000000070002f56 <.LBB1_39>:
; .LBB1_39():
70002f56: fdd2         	C.BSTART.STD	DIRECT, 0x70002f10 <.LBB1_227>
70002f58: 04b00795     	addi	zero, 75, 	->s4

0000000070002f5c <.LBB1_236>:
; .LBB1_236():
70002f5c: fda2         	C.BSTART.STD	DIRECT, 0x70002f10 <.LBB1_227>
70002f5e: 01600795     	addi	zero, 22, 	->s4

0000000070002f62 <.LBB1_237>:
; .LBB1_237():
70002f62: fd72         	C.BSTART.STD	DIRECT, 0x70002f10 <.LBB1_227>
70002f64: 01600795     	addi	zero, 22, 	->s4

0000000070002f68 <.LBB1_238>:
; .LBB1_238():
70002f68: fda2         	C.BSTART.STD	DIRECT, 0x70002f1c <.LBB1_229>
70002f6a: 6fd6         	c.movi	-1, 	->s2

0000000070002f6c <.LBB1_239>:
; .LBB1_239():
70002f6c: fd22         	C.BSTART.STD	DIRECT, 0x70002f10 <.LBB1_227>
70002f6e: 04b00795     	addi	zero, 75, 	->s4

0000000070002f72 <.LBB1_240>:
; .LBB1_240():
70002f72: fcf2         	C.BSTART.STD	DIRECT, 0x70002f10 <.LBB1_227>
70002f74: 01600795     	addi	zero, 22, 	->s4

0000000070002f78 <.LBB1_42>:
; .LBB1_42():
70002f78: fcc2         	C.BSTART.STD	DIRECT, 0x70002f10 <.LBB1_227>
70002f7a: 04b00795     	addi	zero, 75, 	->s4

0000000070002f7e <.LBB1_241>:
; .LBB1_241():
70002f7e: fcf2         	C.BSTART.STD	DIRECT, 0x70002f1c <.LBB1_229>
70002f80: 6806         	c.movr	zero, 	->s2

0000000070002f82 <.LBB1_242>:
; .LBB1_242():
70002f82: fcd2         	C.BSTART.STD	DIRECT, 0x70002f1c <.LBB1_229>
70002f84: 6fd6         	c.movi	-1, 	->s2

0000000070002f86 <.LBB1_243>:
; .LBB1_243():
70002f86: fc52         	C.BSTART.STD	DIRECT, 0x70002f10 <.LBB1_227>
70002f88: 04b00795     	addi	zero, 75, 	->s4

0000000070002f8c <.LBB1_244>:
; .LBB1_244():
70002f8c: fc22         	C.BSTART.STD	DIRECT, 0x70002f10 <.LBB1_227>
70002f8e: 04b00795     	addi	zero, 75, 	->s4

0000000070002f92 <.LBB1_245>:
; .LBB1_245():
70002f92: fbf2         	C.BSTART.STD	DIRECT, 0x70002f10 <.LBB1_227>
70002f94: 04b00795     	addi	zero, 75, 	->s4

0000000070002f98 <.LBB1_246>:
; .LBB1_246():
70002f98: 9232         	C.BSTART.STD	DIRECT, 0x700021de <__stack_chk_fail_local>
70002f9a: 5056         	c.setret	0x70002f9c, ->ra <.LBB1_246+0x4>
; ():
70002f9c: 0800         	C.BSTART.STD	

0000000070002f9e <pop_arg>:
; pop_arg():
70002f9e: 40b50041     	FENTRY	[ra ~ s0], sp!, 256
70002fa2: 0800         	C.BSTART.STD	
70002fa4: 01b4         	C.BSTART.STD	COND, 0x70002fda <.LBB2_7>
70002fa6: 0121d075     	setc.gei	a1, 18
70002faa: 5886         	c.movr	a0, 	->s0
70002fac: 02a4         	C.BSTART.STD	COND, 0x70003000 <.LBB2_11>
70002fae: 00d1d075     	setc.gei	a1, 13
70002fb2: 0474         	C.BSTART.STD	COND, 0x70003040 <.LBB2_17>
70002fb4: 00b1d075     	setc.gei	a1, 11
70002fb8: 0784         	C.BSTART.STD	COND, 0x700030a8 <.LBB2_25>
70002fba: fa56         	c.movi	9, 	->t
70002fbc: 003c4065     	setc.lt	t#1, a1
70002fc0: 0ed4         	C.BSTART.STD	COND, 0x7000319a <.LBB2_39>
70002fc2: 00919075     	setc.nei	a1, 9
70002fc6: 0ea2         	C.BSTART.STD	DIRECT, 0x7000319a <.LBB2_39>
70002fc8: 00023f89     	ld	[a2, zero], 	->t
70002fcc: 460c         	c.addi	t#1, 8, ->t
70002fce: c0023049     	sd	t#1, [a2, zero<<3]
70002fd2: 000cbf89     	ld	[t#2, zero], 	->t
70002fd6: c005b049     	sd	t#1, [s0, zero<<3]

0000000070002fda <.LBB2_7>:
; .LBB2_7():
70002fda: 0234         	C.BSTART.STD	COND, 0x70003020 <.LBB2_14>
70002fdc: 0161d075     	setc.gei	a1, 22
70002fe0: 03d4         	C.BSTART.STD	COND, 0x7000305a <.LBB2_19>
70002fe2: 0141d075     	setc.gei	a1, 20
70002fe6: 06b4         	C.BSTART.STD	COND, 0x700030bc <.LBB2_26>
70002fe8: 0131d075     	setc.gei	a1, 19
70002fec: 0d72         	C.BSTART.STD	DIRECT, 0x7000319a <.LBB2_39>
70002fee: 00023f89     	ld	[a2, zero], 	->t
70002ff2: 460c         	c.addi	t#1, 8, ->t
70002ff4: c0023049     	sd	t#1, [a2, zero<<3]
70002ff8: 000ccf89     	lbu	[t#2, zero], 	->t
70002ffc: c005b049     	sd	t#1, [s0, zero<<3]

0000000070003000 <.LBB2_11>:
; .LBB2_11():
70003000: 03a4         	C.BSTART.STD	COND, 0x70003074 <.LBB2_21>
70003002: 00f1d075     	setc.gei	a1, 15
70003006: 0654         	C.BSTART.STD	COND, 0x700030d0 <.LBB2_27>
70003008: 00e1d075     	setc.gei	a1, 14
7000300c: 0c72         	C.BSTART.STD	DIRECT, 0x7000319a <.LBB2_39>
7000300e: 00023f89     	ld	[a2, zero], 	->t
70003012: 460c         	c.addi	t#1, 8, ->t
70003014: c0023049     	sd	t#1, [a2, zero<<3]
70003018: 000cbf89     	ld	[t#2, zero], 	->t
7000301c: c005b049     	sd	t#1, [s0, zero<<3]

0000000070003020 <.LBB2_14>:
; .LBB2_14():
70003020: 0374         	C.BSTART.STD	COND, 0x7000308e <.LBB2_23>
70003022: 0181d075     	setc.gei	a1, 24
70003026: 05f4         	C.BSTART.STD	COND, 0x700030e4 <.LBB2_28>
70003028: 0171d075     	setc.gei	a1, 23
7000302c: 0b72         	C.BSTART.STD	DIRECT, 0x7000319a <.LBB2_39>
7000302e: 00023f89     	ld	[a2, zero], 	->t
70003032: 460c         	c.addi	t#1, 8, ->t
70003034: c0023049     	sd	t#1, [a2, zero<<3]
70003038: 000cbf89     	ld	[t#2, zero], 	->t
7000303c: c005b049     	sd	t#1, [s0, zero<<3]

0000000070003040 <.LBB2_17>:
; .LBB2_17():
70003040: 05c4         	C.BSTART.STD	COND, 0x700030f8 <.LBB2_29>
70003042: 00c1d075     	setc.gei	a1, 12
70003046: 0aa2         	C.BSTART.STD	DIRECT, 0x7000319a <.LBB2_39>
70003048: 00023f89     	ld	[a2, zero], 	->t
7000304c: 460c         	c.addi	t#1, 8, ->t
7000304e: c0023049     	sd	t#1, [a2, zero<<3]
70003052: 000cef89     	lwu	[t#2, zero], 	->t
70003056: c005b049     	sd	t#1, [s0, zero<<3]

000000007000305a <.LBB2_19>:
; .LBB2_19():
7000305a: 0594         	C.BSTART.STD	COND, 0x7000310c <.LBB2_30>
7000305c: 0151d075     	setc.gei	a1, 21
70003060: 09d2         	C.BSTART.STD	DIRECT, 0x7000319a <.LBB2_39>
70003062: 00023f89     	ld	[a2, zero], 	->t
70003066: 460c         	c.addi	t#1, 8, ->t
70003068: c0023049     	sd	t#1, [a2, zero<<3]
7000306c: 000cbf89     	ld	[t#2, zero], 	->t
70003070: c005b049     	sd	t#1, [s0, zero<<3]

0000000070003074 <.LBB2_21>:
; .LBB2_21():
70003074: 0564         	C.BSTART.STD	COND, 0x70003120 <.LBB2_31>
70003076: 0101d075     	setc.gei	a1, 16
7000307a: 0902         	C.BSTART.STD	DIRECT, 0x7000319a <.LBB2_39>
7000307c: 00023f89     	ld	[a2, zero], 	->t
70003080: 460c         	c.addi	t#1, 8, ->t
70003082: c0023049     	sd	t#1, [a2, zero<<3]
70003086: 000c9f89     	lh	[t#2, zero], 	->t
7000308a: c005b049     	sd	t#1, [s0, zero<<3]

000000007000308e <.LBB2_23>:
; .LBB2_23():
7000308e: 0564         	C.BSTART.STD	COND, 0x7000313a <.LBB2_33>
70003090: 0191d075     	setc.gei	a1, 25
70003094: 0832         	C.BSTART.STD	DIRECT, 0x7000319a <.LBB2_39>
70003096: 00023f89     	ld	[a2, zero], 	->t
7000309a: 460c         	c.addi	t#1, 8, ->t
7000309c: c0023049     	sd	t#1, [a2, zero<<3]
700030a0: 000cbf89     	ld	[t#2, zero], 	->t
700030a4: c005b049     	sd	t#1, [s0, zero<<3]

00000000700030a8 <.LBB2_25>:
; .LBB2_25():
700030a8: 0792         	C.BSTART.STD	DIRECT, 0x7000319a <.LBB2_39>
700030aa: 00023f89     	ld	[a2, zero], 	->t
700030ae: 460c         	c.addi	t#1, 8, ->t
700030b0: c0023049     	sd	t#1, [a2, zero<<3]
700030b4: 000caf89     	lw	[t#2, zero], 	->t
700030b8: c005b049     	sd	t#1, [s0, zero<<3]

00000000700030bc <.LBB2_26>:
; .LBB2_26():
700030bc: 06f2         	C.BSTART.STD	DIRECT, 0x7000319a <.LBB2_39>
700030be: 00023f89     	ld	[a2, zero], 	->t
700030c2: 460c         	c.addi	t#1, 8, ->t
700030c4: c0023049     	sd	t#1, [a2, zero<<3]
700030c8: 000cbf89     	ld	[t#2, zero], 	->t
700030cc: c005b049     	sd	t#1, [s0, zero<<3]

00000000700030d0 <.LBB2_27>:
; .LBB2_27():
700030d0: 0652         	C.BSTART.STD	DIRECT, 0x7000319a <.LBB2_39>
700030d2: 00023f89     	ld	[a2, zero], 	->t
700030d6: 460c         	c.addi	t#1, 8, ->t
700030d8: c0023049     	sd	t#1, [a2, zero<<3]
700030dc: 000cbf89     	ld	[t#2, zero], 	->t
700030e0: c005b049     	sd	t#1, [s0, zero<<3]

00000000700030e4 <.LBB2_28>:
; .LBB2_28():
700030e4: 05b2         	C.BSTART.STD	DIRECT, 0x7000319a <.LBB2_39>
700030e6: 00023f89     	ld	[a2, zero], 	->t
700030ea: 460c         	c.addi	t#1, 8, ->t
700030ec: c0023049     	sd	t#1, [a2, zero<<3]
700030f0: 000cbf89     	ld	[t#2, zero], 	->t
700030f4: c005b049     	sd	t#1, [s0, zero<<3]

00000000700030f8 <.LBB2_29>:
; .LBB2_29():
700030f8: 0512         	C.BSTART.STD	DIRECT, 0x7000319a <.LBB2_39>
700030fa: 00023f89     	ld	[a2, zero], 	->t
700030fe: 460c         	c.addi	t#1, 8, ->t
70003100: c0023049     	sd	t#1, [a2, zero<<3]
70003104: 000cbf89     	ld	[t#2, zero], 	->t
70003108: c005b049     	sd	t#1, [s0, zero<<3]

000000007000310c <.LBB2_30>:
; .LBB2_30():
7000310c: 0472         	C.BSTART.STD	DIRECT, 0x7000319a <.LBB2_39>
7000310e: 00023f89     	ld	[a2, zero], 	->t
70003112: 460c         	c.addi	t#1, 8, ->t
70003114: c0023049     	sd	t#1, [a2, zero<<3]
70003118: 000cbf89     	ld	[t#2, zero], 	->t
7000311c: c005b049     	sd	t#1, [s0, zero<<3]

0000000070003120 <.LBB2_31>:
; .LBB2_31():
70003120: 01f4         	C.BSTART.STD	COND, 0x7000315e <.LBB2_36>
70003122: 0111d075     	setc.gei	a1, 17
70003126: 03a2         	C.BSTART.STD	DIRECT, 0x7000319a <.LBB2_39>
70003128: 00023f89     	ld	[a2, zero], 	->t
7000312c: 460c         	c.addi	t#1, 8, ->t
7000312e: c0023049     	sd	t#1, [a2, zero<<3]
70003132: 000cdf89     	lhu	[t#2, zero], 	->t
70003136: c005b049     	sd	t#1, [s0, zero<<3]

000000007000313a <.LBB2_33>:
; .LBB2_33():
7000313a: 01c4         	C.BSTART.STD	COND, 0x70003172 <.LBB2_37>
7000313c: 01a1d075     	setc.gei	a1, 26
70003140: 00057211     	BSTART.STD	DIRECT, 0x70004708 <__extenddftf2>
70003144: 5216         	c.setret	0x70003154, ->ra <.LBB2_33+0x1a>
70003146: 00023f89     	ld	[a2, zero], 	->t
7000314a: 460c         	c.addi	t#1, 8, ->t
7000314c: c0023049     	sd	t#1, [a2, zero<<3]
70003150: 000cb109     	ld	[t#2, zero], 	->a0
; ():
70003154: 0232         	C.BSTART.STD	DIRECT, 0x7000319a <.LBB2_39>
70003156: 02b1b059     	sdi	a1, [s0, 8]
7000315a: 1005b049     	sd	a0, [s0, zero<<3]

000000007000315e <.LBB2_36>:
; .LBB2_36():
7000315e: 01e2         	C.BSTART.STD	DIRECT, 0x7000319a <.LBB2_39>
70003160: 00023f89     	ld	[a2, zero], 	->t
70003164: 460c         	c.addi	t#1, 8, ->t
70003166: c0023049     	sd	t#1, [a2, zero<<3]
7000316a: 000c8f89     	lb	[t#2, zero], 	->t
7000316e: c005b049     	sd	t#1, [s0, zero<<3]

0000000070003172 <.LBB2_37>:
; .LBB2_37():
70003172: 0144         	C.BSTART.STD	COND, 0x7000319a <.LBB2_39>
70003174: 01a19075     	setc.nei	a1, 26
70003178: 0800         	C.BSTART.STD	
7000317a: 00023f89     	ld	[a2, zero], 	->t
7000317e: 7e0c         	c.addi	t#1, 15, ->t
70003180: 003c2fe7     	bic	t#1, 0, 4, 	->t
70003184: 010c0f95     	addi	t#1, 16, 	->t
70003188: c0023049     	sd	t#1, [a2, zero<<3]
7000318c: 0e5a         	c.ldi	[t#2, 8], ->t
7000318e: 000d3f89     	ld	[t#3, zero], 	->t
70003192: c005b049     	sd	t#1, [s0, zero<<3]
70003196: 02bcb059     	sdi	t#2, [s0, 8]

000000007000319a <.LBB2_39>:
; .LBB2_39():
7000319a: 0800         	C.BSTART.STD	
7000319c: 40b53041     	FRET.STK	[ra ~ s0], sp!, 256
700031a0: 0800         	C.BSTART.STD	

00000000700031a2 <pad>:
; pad():
700031a2: 80c50041     	FENTRY	[ra ~ s1], sp!, 512
700031a6: 0800         	C.BSTART.STD	
700031a8: 0414         	C.BSTART.STD	COND, 0x7000322a <.LBB3_9>
700031aa: 5886         	c.movr	a0, 	->s0
; ():
700031ac: 00004f87     	addtpc	4, 	->t
700031b0: 86cc3fa9     	ldi.u	[t#1, -1940], 	->t
700031b4: 781c3059     	sdi	t#1, [sp, 480]
700031b8: 00012f97     	lui	18, 	->t
700031bc: 01832fc5     	cmp.and	a4, t#1, 	->t
700031c0: 0042dfc5     	cmp.ge	a3, a2, 	->t
700031c4: 019c3065     	setc.or	t#1, t#2
700031c8: 000a5911     	BSTART.STD	DIRECT, 0x70005b2c <memset>
700031cc: 52d6         	c.setret	0x700031e2, ->ra <pad+0x40>
700031ce: 00521625     	subw	a2, a3, 	->s1
700031d2: 10066fd5     	cmp.ltui	s1, 256, 	->t
700031d6: 10000f95     	addi	zero, 256, 	->t
700031da: c9860277     	csel	t#2, s1, t#1, 	->a2
700031de: 0e008115     	addi	sp, 224, 	->a0
700031e2: 0174         	C.BSTART.STD	COND, 0x70003210 <.LBB3_7>
700031e4: 10066075     	setc.ltui	s1, 256

00000000700031e8 <.LBB3_4>:
; .LBB3_4():
700031e8: 00d4         	C.BSTART.STD	COND, 0x70003202 <.LBB3_6>
700031ea: 0005cf89     	lbu	[s0, zero], 	->t
700031ee: 020c2075     	setc.andi	t#1, 32
700031f2: 00048b91     	BSTART.STD	DIRECT, 0x70004420 <__fwritex>
700031f6: 5196         	c.setret	0x70003202, ->ra <.LBB3_6>
700031f8: 22c6         	c.movr	s0, 	->a2
700031fa: 0e008115     	addi	sp, 224, 	->a0
700031fe: 10000195     	addi	zero, 256, 	->a1

0000000070003202 <.LBB3_6>:
; ():
70003202: ff34         	C.BSTART.STD	COND, 0x700031e8 <.LBB3_4>
70003204: 10061615     	subi	s1, 256, 	->s1
70003208: 0ff00f95     	addi	zero, 255, 	->t
7000320c: 02cc6065     	setc.ltu	t#1, s1.sw

0000000070003210 <.LBB3_7>:
; .LBB3_7():
70003210: 00d4         	C.BSTART.STD	COND, 0x7000322a <.LBB3_9>
70003212: 0005cf89     	lbu	[s0, zero], 	->t
70003216: 020c2075     	setc.andi	t#1, 32
7000321a: 00048191     	BSTART.STD	DIRECT, 0x70004420 <__fwritex>
7000321e: 5196         	c.setret	0x7000322a, ->ra <.LBB3_9>
70003220: 81f621e7     	bic	s1, 32, 32, 	->a1
70003224: 22c6         	c.movr	s0, 	->a2
70003226: 0e008115     	addi	sp, 224, 	->a0

000000007000322a <.LBB3_9>:
; ():
7000322a: 00b4         	C.BSTART.STD	COND, 0x70003240 <.LBB3_12>
7000322c: 00003f87     	addtpc	3, 	->t
70003230: 7ecc3fa9     	ldi.u	[t#1, 2028], 	->t
70003234: 03c0bf99     	ldi	[sp, 480], 	->t
70003238: c676         	c.setc.ne	t#2, t#1
7000323a: 0800         	C.BSTART.STD	
7000323c: 80c53041     	FRET.STK	[ra ~ s1], sp!, 512

0000000070003240 <.LBB3_12>:
; .LBB3_12():
70003240: fffbe791     	BSTART.STD	DIRECT, 0x700021de <__stack_chk_fail_local>
70003244: 5056         	c.setret	0x70003246, ->ra <.LBB3_12+0x6>
; ():
70003246: 0800         	C.BSTART.STD	

0000000070003248 <fmt_fp>:
; fmt_fp():
70003248: 81350041     	FENTRY	[ra ~ s8], sp!, 512
7000324c: 0800         	C.BSTART.STD	
7000324e: 0800         	C.BSTART.STD	
70003250: 20008595     	addi	sp, 512, 	->s0
70003254: 0800         	C.BSTART.STD	
70003256: 9206         	c.movr	a6, 	->s7
70003258: 61c6         	c.movr	a5, 	->s1
7000325a: c4b33fd9     	sdi	a4, [s0, -240]
7000325e: 8146         	c.movr	a3, 	->s5
70003260: 8906         	c.movr	a2, 	->s6
70003262: 98c6         	c.movr	a1, 	->s8
70003264: d6b13fd9     	sdi	a0, [s0, -168]
70003268: 525c         	c.sext.w	a7, ->t
7000326a: 005c06d5     	cmp.eqi	t#1, 5, 	->s2
; ():
7000326e: 00003f87     	addtpc	3, 	->t
70003272: 7aac3fa9     	ldi.u	[t#1, 1962], 	->t
70003276: aafa         	c.sdi	t#1, [s0, -88]
70003278: 08000f95     	addi	zero, 128, 	->t
7000327c: 73a00f95     	addi	zero, 1850, 	->t
70003280: 699c0777     	csel	s2, t#1, t#2, 	->s3
70003284: 00277f95     	slli	s3, 2, 	->t
70003288: 0ffc0f95     	addi	t#1, 255, 	->t
7000328c: 007c2fe7     	bic	t#1, 0, 8, 	->t
70003290: 01809785     	sub	sp, t#1, 	->s4
70003294: 0bc6         	c.movr	s4, 	->sp
70003296: 00056f91     	BSTART.STD	DIRECT, 0x70004854 <__signbitl>
7000329a: 5156         	c.setret	0x700032a4, ->ra <fmt_fp+0x5c>
7000329c: b4b02fd9     	swi	zero, [s0, -152]
700032a0: 14c6         	c.movr	s8, 	->a0
700032a2: 1c46         	c.movr	s6, 	->a1
700032a4: 0134         	C.BSTART.STD	COND, 0x700032ca <.LBB4_6>
700032a6: 00a6         	c.setc.eq	a0, zero
700032a8: 0332         	C.BSTART.STD	DIRECT, 0x7000330e <.LBB4_9>
700032aa: c8b03fd9     	sdi	zero, [s0, -224]
700032ae: ffd6         	c.movi	-1, 	->t
700032b0: 03fc7f95     	slli	t#1, 63, 	->t
700032b4: 0188c885     	xor	s6, t#1, 	->s6
700032b8: 00003f87     	addtpc	3, 	->t
700032bc: 548c1f95     	subi	t#1, 1352, 	->t
700032c0: ccbc3fd9     	sdi	t#1, [s0, -208]
700032c4: 1056         	c.movi	1, 	->a0
700032c6: ceb13fd9     	sdi	a0, [s0, -200]

00000000700032ca <.LBB4_6>:
; .LBB4_6():
700032ca: 0184         	C.BSTART.STD	COND, 0x700032fa <.LBB4_8>
700032cc: 80000f95     	addi	zero, 2048, 	->t
700032d0: 01862065     	setc.and	s1, t#1
; ():
700032d4: 00003107     	addtpc	3, 	->a0
700032d8: 01b2         	C.BSTART.STD	DIRECT, 0x7000330e <.LBB4_9>
700032da: 07e62fe7     	bic	s1, 1, 63, 	->t
700032de: cebc3fd9     	sdi	t#1, [s0, -200]
700032e2: 002c         	c.cmp.eqi	t#1, 0, ->t
700032e4: 00003f87     	addtpc	3, 	->t
700032e8: 573c1f95     	subi	t#1, 1395, 	->t
700032ec: 2e0c         	c.addi	t#1, 5, ->t
700032ee: c8bdbfd9     	sdi	t#4, [s0, -224]
700032f2: d98c8177     	csel	t#4, t#2, t#1, 	->a0
700032f6: ccb13fd9     	sdi	a0, [s0, -208]

00000000700032fa <.LBB4_8>:
; .LBB4_8():
700032fa: 0800         	C.BSTART.STD	
700032fc: c8b03fd9     	sdi	zero, [s0, -224]
70003300: 56111f95     	subi	a0, 1377, 	->t
70003304: ccbc3fd9     	sdi	t#1, [s0, -208]
70003308: 1056         	c.movi	1, 	->a0
7000330a: ceb13fd9     	sdi	a0, [s0, -200]

000000007000330e <.LBB4_9>:
; .LBB4_9():
7000330e: 00055491     	BSTART.STD	DIRECT, 0x70004860 <__fpclassifyl>
70003312: 50d6         	c.setret	0x70003318, ->ra <.LBB4_9+0xa>
70003314: 14c6         	c.movr	s8, 	->a0
70003316: 1c46         	c.movr	s6, 	->a1
; ():
70003318: 04a4         	C.BSTART.STD	COND, 0x700033ac <.LBB4_18>
7000331a: f856         	c.movi	1, 	->t
7000331c: 002c5065     	setc.ge	t#1, a0
70003320: d4b63fd9     	sdi	s1, [s0, -176]
70003324: 00055d11     	BSTART.STD	DIRECT, 0x70004898 <frexpl>
70003328: 5296         	c.setret	0x7000333c, ->ra <.LBB4_9+0x2e>
7000332a: 09059f95     	subi	s0, 144, 	->t
7000332e: 660c         	c.addi	t#1, 12, ->t
70003330: d2bc3fd9     	sdi	t#1, [s0, -184]
70003334: 14c6         	c.movr	s8, 	->a0
70003336: 1c46         	c.movr	s6, 	->a1
70003338: 09859215     	subi	s0, 152, 	->a2
7000333c: 00078411     	BSTART.STD	DIRECT, 0x7000514c <__addtf3>
70003340: 50d6         	c.setret	0x70003346, ->ra <.LBB4_9+0x38>
70003342: 2086         	c.movr	a0, 	->a2
70003344: 28c6         	c.movr	a1, 	->a3
70003346: 00057b91     	BSTART.STD	DIRECT, 0x70004934 <__netf2>
7000334a: 5156         	c.setret	0x70003354, ->ra <.LBB4_9+0x46>
7000334c: 9886         	c.movr	a0, 	->s8
7000334e: 88c6         	c.movr	a1, 	->s6
70003350: 2006         	c.movr	zero, 	->a2
70003352: 2806         	c.movr	zero, 	->a3
70003354: 08f4         	C.BSTART.STD	COND, 0x70003472 <.LBB4_27>
70003356: 00a6         	c.setc.eq	a0, zero
70003358: d8b83fd9     	sdi	s5, [s0, -160]
7000335c: 0914         	C.BSTART.STD	COND, 0x7000347e <.LBB4_28>
7000335e: fda5e819     	lwui	[s0, -152], 	->s5
70003362: 00181f95     	subi	s5, 1, 	->t
70003366: b4bc2fd9     	swi	t#1, [s0, -152]
7000336a: 14093167     	bis	s7, 5, 1, 	->a0
7000336e: 509c         	c.sext.w	a0, ->t
70003370: 061c0075     	setc.eqi	t#1, 97
70003374: 0005cd11     	BSTART.STD	DIRECT, 0x70004aa8 <__multf3>
70003378: 5456         	c.setret	0x7000339a, ->ra <.LBB4_9+0x8c>
7000337a: c2b13fd9     	sdi	a0, [s0, -248]
7000337e: fe25bf99     	ldi	[s0, -240], 	->t
70003382: 000c4fd5     	cmp.lti	t#1, 0, 	->t
70003386: f996         	c.movi	6, 	->t
70003388: c9ac0677     	csel	t#2, t#1, t#3, 	->s1
7000338c: 14c6         	c.movr	s8, 	->a0
7000338e: 1c46         	c.movr	s6, 	->a1
70003390: 2006         	c.movr	zero, 	->a2
70003392: 0401bf97     	lui	16411, 	->t
70003396: 024c7295     	slli	t#1, 36, 	->a3
7000339a: 0c82         	C.BSTART.STD	DIRECT, 0x7000352a <.LBB4_37>
7000339c: d0b93fd9     	sdi	s7, [s0, -192]
700033a0: 9886         	c.movr	a0, 	->s8
700033a2: 88c6         	c.movr	a1, 	->s6
700033a4: 01d81815     	subi	s5, 29, 	->s5
700033a8: b4b82fd9     	swi	s5, [s0, -152]

00000000700033ac <.LBB4_18>:
; .LBB4_18():
700033ac: 0005b011     	BSTART.STD	DIRECT, 0x70004a6c <__unordtf2>
700033b0: 52d6         	c.setret	0x700033c6, ->ra <.LBB4_18+0x1a>
700033b2: d0b93fd9     	sdi	s7, [s0, -192]
; ():
700033b6: 00003607     	addtpc	3, 	->s1
700033ba: 00003687     	addtpc	3, 	->s2
700033be: 14c6         	c.movr	s8, 	->a0
700033c0: 1c46         	c.movr	s6, 	->a1
700033c2: 24c6         	c.movr	s8, 	->a2
700033c4: 2c46         	c.movr	s6, 	->a3
700033c6: eee2         	C.BSTART.STD	DIRECT, 0x700031a2 <pad>
700033c8: 5556         	c.setret	0x700033f2, ->ra <.LBB4_18+0x46>
700033ca: 9086         	c.movr	a0, 	->s7
700033cc: 00003707     	addtpc	3, 	->s3
700033d0: 00003787     	addtpc	3, 	->s4
700033d4: fe75bf99     	ldi	[s0, -200], 	->t
700033d8: 003c0895     	addi	t#1, 3, 	->s6
700033dc: fea5bf99     	ldi	[s0, -176], 	->t
700033e0: 400c2367     	bic	t#1, 16, 1, 	->a4
700033e4: feb5b999     	ldi	[s0, -168], 	->s8
700033e8: 14c6         	c.movr	s8, 	->a0
700033ea: 2406         	c.movr	s5, 	->a2
700033ec: 2c46         	c.movr	s6, 	->a3
700033ee: 02000195     	addi	zero, 32, 	->a1
700033f2: 0104         	C.BSTART.STD	COND, 0x70003412 <.LBB4_23>
700033f4: 0009e109     	lwu	[s8, zero], 	->a0
700033f8: 02012075     	setc.andi	a0, 32
700033fc: 00040911     	BSTART.STD	DIRECT, 0x70004420 <__fwritex>
70003400: 5196         	c.setret	0x7000340c, ->ra <.LBB4_18+0x60>
70003402: fe65b119     	ldi	[s0, -208], 	->a0
70003406: fe75b199     	ldi	[s0, -200], 	->a1
7000340a: 24c6         	c.movr	s8, 	->a2
7000340c: 0800         	C.BSTART.STD	
7000340e: 0009e109     	lwu	[s8, zero], 	->a0

0000000070003412 <.LBB4_23>:
; .LBB4_23():
70003412: 01e4         	C.BSTART.STD	COND, 0x7000344e <.LBB4_25>
70003414: 02012075     	setc.andi	a0, 32
70003418: 00040211     	BSTART.STD	DIRECT, 0x70004420 <__fwritex>
7000341c: 5656         	c.setret	0x7000344e, ->ra <.LBB4_25>
7000341e: fe85bf99     	ldi	[s0, -192], 	->t
70003422: 020c2f95     	andi	t#1, 32, 	->t
70003426: 000c0f55     	cmp.eqi	t#1, 0, 	->u
7000342a: 67661f95     	subi	s1, 1654, 	->t
7000342e: 5a269f95     	subi	s2, 1442, 	->t
70003432: e19c0f77     	csel	u#1, t#1, t#2, 	->u
70003436: 69c71f95     	subi	s3, 1692, 	->t
7000343a: 5c079f95     	subi	s4, 1472, 	->t
7000343e: e99c0ff7     	csel	u#2, t#1, t#2, 	->t
70003442: 00091fd5     	cmp.nei	s7, 0, 	->t
70003446: c1cc8177     	csel	t#1, t#2, u#1, 	->a0
7000344a: 24c6         	c.movr	s8, 	->a2
7000344c: 18d6         	c.movi	3, 	->a1

000000007000344e <.LBB4_25>:
; ():
7000344e: eaa2         	C.BSTART.STD	DIRECT, 0x700031a2 <pad>
70003450: 5316         	c.setret	0x70003468, ->ra <.LBB4_25+0x1a>
70003452: 00002f97     	lui	2, 	->t
70003456: fea5bf99     	ldi	[s0, -176], 	->t
7000345a: 019c4305     	xor	t#1, t#2, 	->a4
7000345e: 14c6         	c.movr	s8, 	->a0
70003460: 2406         	c.movr	s5, 	->a2
70003462: 2c46         	c.movr	s6, 	->a3
70003464: 02000195     	addi	zero, 32, 	->a1
70003468: 6d62         	C.BSTART.STD	DIRECT, 0x70004214 <.LBB4_233>
7000346a: 01184fc5     	cmp.lt	s5, s6, 	->t
7000346e: c1088177     	csel	t#1, s6, s5, 	->a0

0000000070003472 <.LBB4_27>:
; .LBB4_27():
70003472: 04e4         	C.BSTART.STD	COND, 0x7000350e <.LBB4_36>
70003474: 14093167     	bis	s7, 5, 1, 	->a0
70003478: 509c         	c.sext.w	a0, ->t
7000347a: 061c1075     	setc.nei	t#1, 97

000000007000347e <.LBB4_28>:
; .LBB4_28():
7000347e: 0434         	C.BSTART.STD	COND, 0x70003504 <.LBB4_35>
70003480: 14090fe7     	bxs	s7, 5, 1, 	->t
70003484: 009c2f95     	andi	t#1, 9, 	->t
70003488: fe65bf99     	ldi	[s0, -208], 	->t
7000348c: 019c0105     	add	t#1, t#2, 	->a0
70003490: c0b13fd9     	sdi	a0, [s0, -256]
70003494: 01b00f95     	addi	zero, 27, 	->t
70003498: fe25b819     	ldi	[s0, -240], 	->s5
7000349c: 010c6065     	setc.ltu	t#1, s5
700034a0: 0008b911     	BSTART.STD	DIRECT, 0x70005784 <scalbn>
700034a4: 52d6         	c.setret	0x700034ba, ->ra <.LBB4_28+0x3c>
700034a6: 07000f95     	addi	zero, 112, 	->t
700034aa: 110c11a5     	subw	t#1, s5<<2, 	->a1
; ():
700034ae: 00003f87     	addtpc	3, 	->t
700034b2: 97ac3129     	ldi.u	[t#1, -1670], 	->a0
700034b6: fe95b799     	ldi	[s0, -184], 	->s4
700034ba: 19e4         	C.BSTART.STD	COND, 0x700037f6 <.LBB4_76>
700034bc: fe05b199     	ldi	[s0, -256], 	->a1
700034c0: 0001cf89     	lbu	[a1, zero], 	->t
700034c4: 02dc1075     	setc.nei	t#1, 45
700034c8: 00049011     	BSTART.STD	DIRECT, 0x70004708 <__extenddftf2>
700034cc: 5196         	c.setret	0x700034d8, ->ra <.LBB4_28+0x5a>
700034ce: ffd6         	c.movi	-1, 	->t
700034d0: 03fc7695     	slli	t#1, 63, 	->s2
700034d4: 00d8c605     	xor	s6, s2, 	->s1
700034d8: 0008d311     	BSTART.STD	DIRECT, 0x70005824 <__subtf3>
700034dc: 51d6         	c.setret	0x700034ea, ->ra <.LBB4_28+0x6c>
700034de: 8886         	c.movr	a0, 	->s6
700034e0: 70c6         	c.movr	a1, 	->s3
700034e2: 14c6         	c.movr	s8, 	->a0
700034e4: 1b06         	c.movr	s1, 	->a1
700034e6: 2446         	c.movr	s6, 	->a2
700034e8: 2b86         	c.movr	s3, 	->a3
700034ea: 00071891     	BSTART.STD	DIRECT, 0x7000514c <__addtf3>
700034ee: 5156         	c.setret	0x700034f8, ->ra <.LBB4_28+0x7a>
700034f0: 2446         	c.movr	s6, 	->a2
700034f2: 2b86         	c.movr	s3, 	->a3
700034f4: fea5b619     	ldi	[s0, -176], 	->s1
700034f8: 1962         	C.BSTART.STD	DIRECT, 0x70003824 <.LBB4_80>
700034fa: 9886         	c.movr	a0, 	->s8
700034fc: 00d1c885     	xor	a1, s2, 	->s6
70003500: fe75b299     	ldi	[s0, -200], 	->a3

0000000070003504 <.LBB4_35>:
; .LBB4_35():
70003504: 1902         	C.BSTART.STD	DIRECT, 0x70003824 <.LBB4_80>
70003506: fe95b799     	ldi	[s0, -184], 	->s4
7000350a: fe75b299     	ldi	[s0, -200], 	->a3

000000007000350e <.LBB4_36>:
; .LBB4_36():
7000350e: 0800         	C.BSTART.STD	
70003510: c2b13fd9     	sdi	a0, [s0, -248]
70003514: d0b93fd9     	sdi	s7, [s0, -192]
70003518: fe25b119     	ldi	[s0, -240], 	->a0
7000351c: 00014fd5     	cmp.lti	a0, 0, 	->t
70003520: f996         	c.movi	6, 	->t
70003522: c82c0677     	csel	t#2, t#1, a0, 	->s1
70003526: fda5e819     	lwui	[s0, -152], 	->s5

000000007000352a <.LBB4_37>:
; .LBB4_37():
7000352a: 0800         	C.BSTART.STD	
7000352c: fed6         	c.movi	-5, 	->t
7000352e: fcd6         	c.movi	-13, 	->t
70003530: 699c0ff7     	csel	s2, t#1, t#2, 	->t
70003534: fea5bf99     	ldi	[s0, -176], 	->t
70003538: 008c2115     	andi	t#1, 8, 	->a0
7000353c: cab13fd9     	sdi	a0, [s0, -216]
70003540: 03003905     	or	zero, s5.sw, 	->s7
70003544: 00094fd5     	cmp.lti	s7, 0, 	->t
70003548: 10e78f85     	add	s4, s3<<2, 	->t
7000354c: 11bc0f85     	add	t#1, t#4<<2, 	->t
70003550: 004c1f95     	subi	t#1, 4, 	->t
70003554: d9878777     	csel	t#4, s4, t#1, 	->s3
70003558: 6b86         	c.movr	s3, 	->s2

000000007000355a <.LBB4_38>:
; .LBB4_38():
7000355a: 0008b691     	BSTART.STD	DIRECT, 0x70005834 <__fixunstfsi>
7000355e: 50d6         	c.setret	0x70003564, ->ra <.LBB4_38+0xa>
70003560: 14c6         	c.movr	s8, 	->a0
70003562: 1c46         	c.movr	s6, 	->a1
; ():
70003564: 0008d311     	BSTART.STD	DIRECT, 0x700058b0 <__floatunsitf>
70003568: 5156         	c.setret	0x70003572, ->ra <.LBB4_38+0x18>
7000356a: 1006a049     	sw	a0, [s2, zero<<2]
7000356e: 00468695     	addi	s2, 4, 	->s2
70003572: 0008ac91     	BSTART.STD	DIRECT, 0x70005824 <__subtf3>
70003576: 5156         	c.setret	0x70003580, ->ra <.LBB4_38+0x26>
70003578: 2086         	c.movr	a0, 	->a2
7000357a: 28c6         	c.movr	a1, 	->a3
7000357c: 14c6         	c.movr	s8, 	->a0
7000357e: 1c46         	c.movr	s6, 	->a1
70003580: 00054a11     	BSTART.STD	DIRECT, 0x70004aa8 <__multf3>
70003584: 52d6         	c.setret	0x7000359a, ->ra <.LBB4_38+0x40>
70003586: 2006         	c.movr	zero, 	->a2
70003588: 00100f97     	lui	256, 	->t
7000358c: 737c0f95     	addi	t#1, 1847, 	->t
70003590: 13ac         	c.slli	t#1, 14, ->t
70003592: d65c0f95     	addi	t#1, 3429, 	->t
70003596: 01cc7295     	slli	t#1, 28, 	->a3
7000359a: 0004e691     	BSTART.STD	DIRECT, 0x70004934 <__netf2>
7000359e: 5156         	c.setret	0x700035a8, ->ra <.LBB4_38+0x4e>
700035a0: 9886         	c.movr	a0, 	->s8
700035a2: 88c6         	c.movr	a1, 	->s6
700035a4: 2006         	c.movr	zero, 	->a2
700035a6: 2806         	c.movr	zero, 	->a3
700035a8: fd94         	C.BSTART.STD	COND, 0x7000355a <.LBB4_38>
700035aa: 00b6         	c.setc.ne	a0, zero
700035ac: 04a4         	C.BSTART.STD	COND, 0x70003640 <.LBB4_54>
700035ae: 00194075     	setc.lti	s7, 1
700035b2: 0800         	C.BSTART.STD	
700035b4: 9b86         	c.movr	s3, 	->s8
700035b6: fe15ba19     	ldi	[s0, -248], 	->x0

00000000700035ba <.LBB4_46>:
; .LBB4_46():
700035ba: 02f4         	C.BSTART.STD	COND, 0x70003618 <.LBB4_51>
700035bc: 541c         	c.sext.w	s5, ->t
700035be: 01dc4fd5     	cmp.lti	t#1, 29, 	->t
700035c2: 01d00f95     	addi	zero, 29, 	->t
700035c6: c98d0177     	csel	t#2, t#3, t#1, 	->a0
700035ca: 00469195     	subi	s2, 4, 	->a1
700035ce: 0131e065     	setc.ltu	a1, s8
700035d2: 0800         	C.BSTART.STD	
700035d4: 2006         	c.movr	zero, 	->a2
700035d6: 81f122e7     	bic	a0, 32, 32, 	->a3

00000000700035da <.LBB4_48>:
; .LBB4_48():
700035da: 0004         	C.BSTART.STD	COND, 0x700035da <.LBB4_48>
700035dc: 0001ef89     	lwu	[a1, zero], 	->t
700035e0: 005c7f85     	sll	t#1, a3, 	->t
700035e4: 044c0f85     	add	t#1, a2.uw, 	->t
700035e8: 3b9acf97     	lui	244140, 	->t
700035ec: a00c0f95     	addi	t#1, 2560, 	->t
700035f0: 018d1257     	divu	t#3, t#1, 	->a2
700035f4: 01820fc7     	mul	a2, t#1, 	->t
700035f8: c6d8         	c.sub	t#4, t#1, ->t
700035fa: c001a049     	sw	t#1, [a1, zero<<2]
700035fe: 00419195     	subi	a1, 4, 	->a1
70003602: 0131f065     	setc.geu	a1, s8
70003606: 0094         	C.BSTART.STD	COND, 0x70003618 <.LBB4_51>
70003608: 511c         	c.sext.w	a2, ->t
7000360a: 0626         	c.setc.eq	t#1, zero
7000360c: 0800         	C.BSTART.STD	
7000360e: 00499f95     	subi	s8, 4, 	->t
70003612: ff322fd9     	swi	a2, [s8, -4]
70003616: 9e06         	c.movr	t#1, 	->s8

0000000070003618 <.LBB4_51>:
; .LBB4_51():
70003618: 0094         	C.BSTART.STD	COND, 0x7000362a <.LBB4_53>
7000361a: 9346         	c.movr	s2, 	->s7
7000361c: 0129f065     	setc.geu	s8, s7
70003620: ffc4         	C.BSTART.STD	COND, 0x70003618 <.LBB4_51>
70003622: 00491695     	subi	s7, 4, 	->s2
70003626: fc8a         	c.lwi	[s7, -4], ->t
70003628: 0626         	c.setc.eq	t#1, zero

000000007000362a <.LBB4_53>:
; .LBB4_53():
7000362a: fc84         	C.BSTART.STD	COND, 0x700035ba <.LBB4_46>
7000362c: 6c86         	c.movr	s7, 	->s2
7000362e: fda5af99     	lwi	[s0, -152], 	->t
70003632: 002c1825     	subw	t#1, a0, 	->s5
70003636: 01004065     	setc.lt	zero, s5
7000363a: b4b82fd9     	swi	s5, [s0, -152]
7000363e: 0062         	C.BSTART.STD	DIRECT, 0x7000364a <.LBB4_55>

0000000070003640 <.LBB4_54>:
; .LBB4_54():
70003640: 0800         	C.BSTART.STD	
70003642: 9346         	c.movr	s2, 	->s7
70003644: 9b86         	c.movr	s3, 	->s8
70003646: fe15ba19     	ldi	[s0, -248], 	->x0

000000007000364a <.LBB4_55>:
; .LBB4_55():
7000364a: 0634         	C.BSTART.STD	COND, 0x70003710 <.LBB4_64>
7000364c: ffd6         	c.movi	-1, 	->t
7000364e: 030c4065     	setc.lt	t#1, s5.sw
70003652: 0800         	C.BSTART.STD	
70003654: 02d60f95     	addi	s1, 45, 	->t
70003658: 6e1c         	c.zext.w	t#1, ->t
7000365a: 38e38f97     	lui	233016, 	->t
7000365e: e39c0f95     	addi	t#1, 3641, 	->t
70003662: 018d0fc7     	mul	t#3, t#1, 	->t
70003666: 021c5115     	srli	t#1, 33, 	->a0
7000366a: 00110195     	addi	a0, 1, 	->a1
7000366e: 551c         	c.sext.w	x0, ->t
70003670: 066c0255     	cmp.eqi	t#1, 102, 	->a2

0000000070003674 <.LBB4_57>:
; .LBB4_57():
70003674: 0324         	C.BSTART.STD	COND, 0x700036d8 <.LBB4_62>
70003676: 0129f065     	setc.geu	s8, s7
7000367a: 01001fa5     	subw	zero, s5, 	->t
7000367e: 009c4fd5     	cmp.lti	t#1, 9, 	->t
70003682: fa56         	c.movi	9, 	->t
70003684: c98d02f7     	csel	t#2, t#3, t#1, 	->a3
70003688: 0800         	C.BSTART.STD	
7000368a: 3006         	c.movr	zero, 	->a4
7000368c: 3cc6         	c.movr	s8, 	->a5
7000368e: 81f2af67     	bic	a3, 32, 32, 	->u
70003692: ffd6         	c.movi	-1, 	->t
70003694: 01cc7fa5     	sllw	t#1, u#1, 	->t
70003698: fffc4415     	xori	t#1, -1, 	->a6
7000369c: 3b9acf97     	lui	244140, 	->t
700036a0: a00c0f95     	addi	t#1, 2560, 	->t
700036a4: 01cc54a5     	srlw	t#1, u#1, 	->a7

00000000700036a8 <.LBB4_59>:
; .LBB4_59():
700036a8: 0004         	C.BSTART.STD	COND, 0x700036a8 <.LBB4_59>
700036aa: 0003af89     	lw	[a5, zero], 	->t
700036ae: 4628         	c.and	t#1, a6, ->t
700036b0: 005cdfa5     	srlw	t#2, a3, 	->t
700036b4: 3608         	c.add	t#1, a4, ->t
700036b6: c003a049     	sw	t#1, [a5, zero<<2]
700036ba: 00438395     	addi	a5, 4, 	->a5
700036be: 0123e065     	setc.ltu	a5, s7
700036c2: 009d2347     	mulw	t#3, a7, 	->a4
700036c6: 00c4         	C.BSTART.STD	COND, 0x700036de <.LBB4_63>
700036c8: 01a6         	c.setc.eq	a4, zero
700036ca: 0009e389     	lwu	[s8, zero], 	->a5
700036ce: 0082         	C.BSTART.STD	DIRECT, 0x700036de <.LBB4_63>
700036d0: 248c         	c.addi	s7, 4, ->t
700036d2: 30092049     	sw	a4, [s7, zero<<2]
700036d6: 9606         	c.movr	t#1, 	->s7

00000000700036d8 <.LBB4_62>:
; .LBB4_62():
700036d8: 0800         	C.BSTART.STD	
700036da: 0009e389     	lwu	[s8, zero], 	->a5

00000000700036de <.LBB4_63>:
; .LBB4_63():
700036de: fcb4         	C.BSTART.STD	COND, 0x70003674 <.LBB4_57>
700036e0: 00038fd5     	cmp.eqi	a5, 0, 	->t
700036e4: 11898985     	add	s8, t#1<<2, 	->s8
700036e8: 21370ff7     	csel	a2, s3, s8, 	->t
700036ec: c498         	c.sub	s7, t#1, ->t
700036ee: 002c6f95     	srai	t#1, 2, 	->t
700036f2: 0181cfc5     	cmp.lt	a1, t#1, 	->t
700036f6: 102d8f85     	add	t#4, a0<<2, 	->t
700036fa: 260c         	c.addi	t#1, 4, ->t
700036fc: d12c0977     	csel	t#3, t#1, s7, 	->s7
70003700: fda5af99     	lwi	[s0, -152], 	->t
70003704: 005c0825     	addw	t#1, a3, 	->s5
70003708: 00084075     	setc.lti	s5, 0
7000370c: b4b82fd9     	swi	s5, [s0, -152]

0000000070003710 <.LBB4_64>:
; .LBB4_64():
70003710: 0194         	C.BSTART.STD	COND, 0x70003742 <.LBB4_68>
70003712: 0129f065     	setc.geu	s8, s7
70003716: 0184         	C.BSTART.STD	COND, 0x70003746 <.LBB4_69>
70003718: 9b98         	c.sub	s3, s8, ->t
7000371a: 18ac         	c.srli	t#1, 2, ->t
7000371c: 198c07a5     	addw	t#1, t#1<<3, 	->s4
70003720: 0009e189     	lwu	[s8, zero], 	->a1
70003724: 00a1e075     	setc.ltui	a1, 10
70003728: 0800         	C.BSTART.STD	
7000372a: 1296         	c.movi	10, 	->a0
7000372c: 02303185     	or	zero, a1.sw, 	->a1
70003730: 2296         	c.movi	10, 	->a2

0000000070003732 <.LBB4_67>:
; .LBB4_67():
70003732: 0004         	C.BSTART.STD	COND, 0x70003732 <.LBB4_67>
70003734: 00220247     	mul	a2, a0, 	->a2
70003738: 0241f065     	setc.geu	a1, a2.sw
7000373c: 00178795     	addi	s4, 1, 	->s4
70003740: 0032         	C.BSTART.STD	DIRECT, 0x70003746 <.LBB4_69>

0000000070003742 <.LBB4_68>:
; .LBB4_68():
70003742: 0800         	C.BSTART.STD	
70003744: 7806         	c.movr	zero, 	->s4

0000000070003746 <.LBB4_69>:
; .LBB4_69():
70003746: 0554         	C.BSTART.STD	COND, 0x700037f0 <.LBB4_75>
70003748: 551c         	c.sext.w	x0, ->t
7000374a: 066c0fd5     	cmp.eqi	t#1, 102, 	->t
7000374e: c0f00ff7     	csel	t#1, zero, s4, 	->t
70003752: c318         	c.sub	s1, t#1, ->t
70003754: 067d83d5     	cmp.eqi	t#4, 103, 	->a5
70003758: 00061355     	cmp.nei	s1, 0, 	->a4
7000375c: 39a8         	c.and	a4, a5, ->t
7000375e: 018c9125     	subw	t#2, t#1, 	->a0
70003762: 7498         	c.sub	s7, s3, ->t
70003764: 002c6f95     	srai	t#1, 2, 	->t
70003768: 099c0f85     	add	t#1, t#2<<1, 	->t
7000376c: 009c1f95     	subi	t#1, 9, 	->t
70003770: 01815065     	setc.ge	a0, t#1
70003774: 02b4         	C.BSTART.STD	COND, 0x700037ca <.LBB4_73>
70003776: 00024f97     	lui	36, 	->t
7000377a: 01810f05     	add	a0, t#1, 	->u
7000377e: 571c         	c.sext.w	u#1, ->t
70003780: 38e38f97     	lui	233016, 	->t
70003784: e39c0f95     	addi	t#1, 3641, 	->t
70003788: 018d0fc7     	mul	t#3, t#1, 	->t
7000378c: 03fc5f95     	srli	t#1, 63, 	->t
70003790: 021cef95     	srai	t#2, 33, 	->t
70003794: ce08         	c.add	t#1, t#2, ->t
70003796: 11870f85     	add	s3, t#1<<2, 	->t
7000379a: ffff0f97     	lui	-16, 	->t
7000379e: 260c         	c.addi	t#1, 4, ->t
700037a0: 018d0485     	add	t#3, t#1, 	->a7
700037a4: 19bd8f85     	add	t#4, t#4<<3, 	->t
700037a8: 018e1125     	subw	u#1, t#1, 	->a0
700037ac: 6a96         	c.movi	10, 	->s2
700037ae: f9d6         	c.movi	7, 	->t
700037b0: 002c4065     	setc.lt	t#1, a0
700037b4: 0800         	C.BSTART.STD	
700037b6: 1a96         	c.movi	10, 	->a1
700037b8: 6a96         	c.movi	10, 	->s2

00000000700037ba <.LBB4_72>:
; .LBB4_72():
700037ba: 0004         	C.BSTART.STD	COND, 0x700037ba <.LBB4_72>
700037bc: 088c         	c.addi	a0, 1, ->t
700037be: 509c         	c.sext.w	a0, ->t
700037c0: 007c4075     	setc.lti	t#1, 7
700037c4: 1646         	c.movr	t#2, 	->a0
700037c6: 003686c7     	mul	s2, a1, 	->s2

00000000700037ca <.LBB4_73>:
; .LBB4_73():
700037ca: 15d4         	C.BSTART.STD	COND, 0x70003a84 <.LBB4_115>
700037cc: 0004ea09     	lwu	[a7, zero], 	->x0
700037d0: 00da3257     	divuw	x0, s2, 	->a2
700037d4: 00d20fc7     	mul	a2, s2, 	->t
700037d8: 018a1425     	subw	x0, t#1, 	->a6
700037dc: 00040fd5     	cmp.eqi	a6, 0, 	->t
700037e0: 224c         	c.addi	a7, 4, ->t
700037e2: 012c02c5     	cmp.eq	t#1, s7, 	->a3
700037e6: 2e68         	c.and	t#2, a3, ->t
700037e8: 0626         	c.setc.eq	t#1, zero
700037ea: 2082         	C.BSTART.STD	DIRECT, 0x70003bfa <.LBB4_138>
700037ec: fe55ba19     	ldi	[s0, -216], 	->x0

00000000700037f0 <.LBB4_75>:
; .LBB4_75():
700037f0: 20b2         	C.BSTART.STD	DIRECT, 0x70003c06 <.LBB4_139>
700037f2: fe55ba19     	ldi	[s0, -216], 	->x0

00000000700037f6 <.LBB4_76>:
; .LBB4_76():
700037f6: 7892         	C.BSTART.STD	DIRECT, 0x70004708 <__extenddftf2>
700037f8: 5056         	c.setret	0x700037fa, ->ra <.LBB4_76+0x4>
; ():
700037fa: 00065491     	BSTART.STD	DIRECT, 0x7000514c <__addtf3>
700037fe: 51d6         	c.setret	0x7000380c, ->ra <.LBB4_76+0x16>
70003800: 7086         	c.movr	a0, 	->s3
70003802: 60c6         	c.movr	a1, 	->s1
70003804: 14c6         	c.movr	s8, 	->a0
70003806: 1c46         	c.movr	s6, 	->a1
70003808: 2386         	c.movr	s3, 	->a2
7000380a: 2b06         	c.movr	s1, 	->a3
7000380c: 00080611     	BSTART.STD	DIRECT, 0x70005824 <__subtf3>
70003810: 50d6         	c.setret	0x70003816, ->ra <.LBB4_76+0x20>
70003812: 2386         	c.movr	s3, 	->a2
70003814: 2b06         	c.movr	s1, 	->a3
70003816: 0800         	C.BSTART.STD	
70003818: 9886         	c.movr	a0, 	->s8
7000381a: 88c6         	c.movr	a1, 	->s6
7000381c: fea5b619     	ldi	[s0, -176], 	->s1
70003820: fe75b299     	ldi	[s0, -200], 	->a3

0000000070003824 <.LBB4_80>:
; .LBB4_80():
70003824: 0244         	C.BSTART.STD	COND, 0x7000386c <.LBB4_83>
70003826: fda5af99     	lwi	[s0, -152], 	->t
7000382a: 561c         	c.sext.w	t#1, ->t
7000382c: 01fc6f95     	srai	t#1, 31, 	->t
70003830: 018d4f85     	xor	t#3, t#1, 	->t
70003834: 019c1fa5     	subw	t#1, t#2, 	->t
70003838: 00ac6075     	setc.ltui	t#1, 10
7000383c: 81fc21e7     	bic	t#1, 32, 32, 	->a1
70003840: 0800         	C.BSTART.STD	
70003842: 23c6         	c.movr	s4, 	->a2

0000000070003844 <.LBB4_82>:
; .LBB4_82():
70003844: 0004         	C.BSTART.STD	COND, 0x70003844 <.LBB4_82>
70003846: f0c6         	c.movr	a1, 	->u
70003848: fa96         	c.movi	10, 	->t
7000384a: 018191d7     	divu	a1, t#1, 	->a1
7000384e: 01818fc7     	mul	a1, t#1, 	->t
70003852: c718         	c.sub	u#1, t#1, ->t
70003854: 101c3fe7     	bis	t#1, 4, 2, 	->t
70003858: fe4c0fd9     	sbi	t#1, [a2, -1]
7000385c: 00121115     	subi	a2, 1, 	->a0
70003860: 2086         	c.movr	a0, 	->a2
70003862: 06300f95     	addi	zero, 99, 	->t
70003866: 01cc6065     	setc.ltu	t#1, u#1
7000386a: 0032         	C.BSTART.STD	DIRECT, 0x70003870 <.LBB4_84>

000000007000386c <.LBB4_83>:
; .LBB4_83():
7000386c: 0800         	C.BSTART.STD	
7000386e: 13c6         	c.movr	s4, 	->a0

0000000070003870 <.LBB4_84>:
; .LBB4_84():
70003870: 0094         	C.BSTART.STD	COND, 0x70003882 <.LBB4_86>
70003872: 00e6         	c.setc.eq	a1, zero
70003874: 0800         	C.BSTART.STD	
70003876: 03018f95     	addi	a1, 48, 	->t
7000387a: fe2c0fd9     	sbi	t#1, [a0, -1]
7000387e: 00111115     	subi	a0, 1, 	->a0

0000000070003882 <.LBB4_86>:
; .LBB4_86():
70003882: 00b4         	C.BSTART.STD	COND, 0x70003898 <.LBB4_88>
70003884: 78b6         	c.setc.ne	a0, s4
70003886: 0800         	C.BSTART.STD	
70003888: 09059f95     	subi	s0, 144, 	->t
7000388c: 00bc0115     	addi	t#1, 11, 	->a0
70003890: 03000f95     	addi	zero, 48, 	->t
70003894: f6bc0f59     	sbi	t#1, [s0, -133]

0000000070003898 <.LBB4_88>:
; .LBB4_88():
70003898: 0800         	C.BSTART.STD	
7000389a: 02092695     	andi	s7, 32, 	->s2
7000389e: 0402b1e7     	bis	a3, 1, 1, 	->a1
700038a2: b4b1bfd9     	sdi	a1, [s0, -304]
700038a6: fda5af99     	lwi	[s0, -152], 	->t
700038aa: 000c4fd5     	cmp.lti	t#1, 0, 	->t
700038ae: 02b00f95     	addi	zero, 43, 	->t
700038b2: 02d00f95     	addi	zero, 45, 	->t
700038b6: d19c0ff7     	csel	t#3, t#1, t#2, 	->t
700038ba: fe2c0fd9     	sbi	t#1, [a0, -1]
700038be: 7c8c         	c.addi	s7, 15, ->t
700038c0: fc2c0fd9     	sbi	t#1, [a0, -2]
700038c4: 00211115     	subi	a0, 2, 	->a0
700038c8: b8b13fd9     	sdi	a0, [s0, -288]
700038cc: 00184755     	cmp.lti	s5, 1, 	->s3
700038d0: 00862f95     	andi	s1, 8, 	->t
700038d4: 000c07d5     	cmp.eqi	t#1, 0, 	->s4
700038d8: 08059815     	subi	s0, 128, 	->s5
700038dc: 08059615     	subi	s0, 128, 	->s1

00000000700038e0 <.LBB4_89>:
; .LBB4_89():
700038e0: 00082011     	BSTART.STD	DIRECT, 0x70005960 <__fixtfsi>
700038e4: 50d6         	c.setret	0x700038ea, ->ra <.LBB4_89+0xa>
700038e6: 14c6         	c.movr	s8, 	->a0
700038e8: 1c46         	c.movr	s6, 	->a1
; ():
700038ea: 00084291     	BSTART.STD	DIRECT, 0x700059f4 <__floatsitf>
700038ee: 5316         	c.setret	0x70003906, ->ra <.LBB4_89+0x26>
700038f0: 00002f87     	addtpc	2, 	->t
700038f4: 718c0f95     	addi	t#1, 1816, 	->t
700038f8: 002c0f89     	lb	[t#1, a0], 	->t
700038fc: 6e38         	c.or	t#1, s2, ->t
700038fe: c0060049     	sb	t#1, [s1, zero]
70003902: 00160915     	addi	s1, 1, 	->s7
70003906: 0007c791     	BSTART.STD	DIRECT, 0x70005824 <__subtf3>
7000390a: 5156         	c.setret	0x70003914, ->ra <.LBB4_89+0x34>
7000390c: 2086         	c.movr	a0, 	->a2
7000390e: 28c6         	c.movr	a1, 	->a3
70003910: 14c6         	c.movr	s8, 	->a0
70003912: 1c46         	c.movr	s6, 	->a1
70003914: 00046511     	BSTART.STD	DIRECT, 0x70004aa8 <__multf3>
70003918: 5196         	c.setret	0x70003924, ->ra <.LBB4_89+0x44>
7000391a: 2006         	c.movr	zero, 	->a2
7000391c: 04003f97     	lui	16387, 	->t
70003920: 024c7295     	slli	t#1, 36, 	->a3
70003924: 01a4         	C.BSTART.STD	COND, 0x70003958 <.LBB4_97>
70003926: 9886         	c.movr	a0, 	->s8
70003928: 88c6         	c.movr	a1, 	->s6
7000392a: 8498         	c.sub	s7, s5, ->t
7000392c: 001c1075     	setc.nei	t#1, 1
70003930: 00040111     	BSTART.STD	DIRECT, 0x70004934 <__netf2>
70003934: 5156         	c.setret	0x7000393e, ->ra <.LBB4_89+0x5e>
70003936: 14c6         	c.movr	s8, 	->a0
70003938: 1c46         	c.movr	s6, 	->a1
7000393a: 2006         	c.movr	zero, 	->a2
7000393c: 2806         	c.movr	zero, 	->a3
7000393e: 00d4         	C.BSTART.STD	COND, 0x70003958 <.LBB4_97>
70003940: 00010fd5     	cmp.eqi	a0, 0, 	->t
70003944: c3a8         	c.and	s3, t#1, ->t
70003946: 0187a065     	setc.and	s4, t#1
7000394a: 0800         	C.BSTART.STD	
7000394c: 00260915     	addi	s1, 2, 	->s7
70003950: 02e00f95     	addi	zero, 46, 	->t
70003954: 02cc0059     	sbi	t#1, [s1, 1]

0000000070003958 <.LBB4_97>:
; .LBB4_97():
70003958: 7ee2         	C.BSTART.STD	DIRECT, 0x70004934 <__netf2>
7000395a: 5156         	c.setret	0x70003964, ->ra <.LBB4_97+0xc>
7000395c: 14c6         	c.movr	s8, 	->a0
7000395e: 1c46         	c.movr	s6, 	->a1
70003960: 2006         	c.movr	zero, 	->a2
70003962: 2806         	c.movr	zero, 	->a3
; ():
70003964: fbe4         	C.BSTART.STD	COND, 0x700038e0 <.LBB4_89>
70003966: 00b6         	c.setc.ne	a0, zero
70003968: 6486         	c.movr	s7, 	->s1
7000396a: 4554         	C.BSTART.STD	COND, 0x70004214 <.LBB4_233>
7000396c: fe95bf99     	ldi	[s0, -184], 	->t
70003970: fdc5b999     	ldi	[s0, -288], 	->s8
70003974: 013c1885     	sub	t#1, s8, 	->s6
70003978: fda5bf99     	ldi	[s0, -304], 	->t
7000397c: c448         	c.add	s6, t#1, ->t
7000397e: 7fffff97     	lui	524287, 	->t
70003982: ffdc0f95     	addi	t#1, 4093, 	->t
70003986: d618         	c.sub	t#1, t#3, ->t
70003988: 17d6         	c.movi	-1, 	->a0
7000398a: fe25b199     	ldi	[s0, -240], 	->a1
7000398e: 003c4065     	setc.lt	t#1, a1
70003992: 0144         	C.BSTART.STD	COND, 0x700039ba <.LBB4_103>
70003994: 00e6         	c.setc.eq	a1, zero
70003996: 0124         	C.BSTART.STD	COND, 0x700039ba <.LBB4_103>
70003998: 08059f95     	subi	s0, 128, 	->t
7000399c: c498         	c.sub	s7, t#1, ->t
7000399e: 002c1f95     	subi	t#1, 2, 	->t
700039a2: 003c5065     	setc.ge	t#1, a1
700039a6: 0152         	C.BSTART.STD	DIRECT, 0x700039d0 <.LBB4_104>
700039a8: 10cc         	c.addi	a1, 2, ->t
700039aa: 81fc2167     	bic	t#1, 32, 32, 	->a0
700039ae: fec5b799     	ldi	[s0, -160], 	->s4
700039b2: feb5b819     	ldi	[s0, -168], 	->s5
700039b6: fea5b619     	ldi	[s0, -176], 	->s1

00000000700039ba <.LBB4_103>:
; .LBB4_103():
700039ba: 0800         	C.BSTART.STD	
700039bc: 08059f95     	subi	s0, 128, 	->t
700039c0: 01891105     	sub	s7, t#1, 	->a0
700039c4: fec5b799     	ldi	[s0, -160], 	->s4
700039c8: feb5b819     	ldi	[s0, -168], 	->s5
700039cc: fea5b619     	ldi	[s0, -176], 	->s1

00000000700039d0 <.LBB4_104>:
; .LBB4_104():
700039d0: be92         	C.BSTART.STD	DIRECT, 0x700031a2 <pad>
700039d2: 5356         	c.setret	0x700039ec, ->ra <.LBB4_104+0x1c>
700039d4: 01110705     	add	a0, s6, 	->s3
700039d8: fda5bf99     	ldi	[s0, -304], 	->t
700039dc: 00ec06a5     	addw	t#1, s3, 	->s2
700039e0: 1406         	c.movr	s5, 	->a0
700039e2: 23c6         	c.movr	s4, 	->a2
700039e4: 2b46         	c.movr	s2, 	->a3
700039e6: 3306         	c.movr	s1, 	->a4
700039e8: 02000195     	addi	zero, 32, 	->a1
; ():
700039ec: 00c4         	C.BSTART.STD	COND, 0x70003a04 <.LBB4_107>
700039ee: 00084f89     	lbu	[s5, zero], 	->t
700039f2: 020c2075     	setc.andi	t#1, 32
700039f6: 5152         	C.BSTART.STD	DIRECT, 0x70004420 <__fwritex>
700039f8: 5196         	c.setret	0x70003a04, ->ra <.LBB4_107>
700039fa: fe05b119     	ldi	[s0, -256], 	->a0
700039fe: fda5b199     	ldi	[s0, -304], 	->a1
70003a02: 2406         	c.movr	s5, 	->a2

0000000070003a04 <.LBB4_107>:
70003a04: bcf2         	C.BSTART.STD	DIRECT, 0x700031a2 <pad>
70003a06: 5296         	c.setret	0x70003a1a, ->ra <.LBB4_107+0x16>
70003a08: 00010f97     	lui	16, 	->t
70003a0c: 01864305     	xor	s1, t#1, 	->a4
70003a10: 1406         	c.movr	s5, 	->a0
70003a12: 23c6         	c.movr	s4, 	->a2
70003a14: 2b46         	c.movr	s2, 	->a3
70003a16: 03000195     	addi	zero, 48, 	->a1
70003a1a: 00f4         	C.BSTART.STD	COND, 0x70003a38 <.LBB4_110>
70003a1c: 08059f95     	subi	s0, 128, 	->t
70003a20: 01891605     	sub	s7, t#1, 	->s1
70003a24: 00084f89     	lbu	[s5, zero], 	->t
70003a28: 020c2075     	setc.andi	t#1, 32
70003a2c: 4fa2         	C.BSTART.STD	DIRECT, 0x70004420 <__fwritex>
70003a2e: 5156         	c.setret	0x70003a38, ->ra <.LBB4_110>
70003a30: 1b06         	c.movr	s1, 	->a1
70003a32: 2406         	c.movr	s5, 	->a2
70003a34: 08059115     	subi	s0, 128, 	->a0

0000000070003a38 <.LBB4_110>:
70003a38: bb52         	C.BSTART.STD	DIRECT, 0x700031a2 <pad>
70003a3a: 5256         	c.setret	0x70003a4c, ->ra <.LBB4_110+0x14>
70003a3c: 8b08         	c.add	s1, s6, ->t
70003a3e: 01871225     	subw	s3, t#1, 	->a2
70003a42: 1406         	c.movr	s5, 	->a0
70003a44: 2806         	c.movr	zero, 	->a3
70003a46: 3006         	c.movr	zero, 	->a4
70003a48: 03000195     	addi	zero, 48, 	->a1
70003a4c: 00c4         	C.BSTART.STD	COND, 0x70003a64 <.LBB4_113>
70003a4e: 00084f89     	lbu	[s5, zero], 	->t
70003a52: 020c2075     	setc.andi	t#1, 32
70003a56: fea5b619     	ldi	[s0, -176], 	->s1
70003a5a: 4e32         	C.BSTART.STD	DIRECT, 0x70004420 <__fwritex>
70003a5c: 5116         	c.setret	0x70003a64, ->ra <.LBB4_113>
70003a5e: 14c6         	c.movr	s8, 	->a0
70003a60: 1c46         	c.movr	s6, 	->a1
70003a62: 2406         	c.movr	s5, 	->a2

0000000070003a64 <.LBB4_113>:
70003a64: b9f2         	C.BSTART.STD	DIRECT, 0x700031a2 <pad>
70003a66: 5296         	c.setret	0x70003a7a, ->ra <.LBB4_113+0x16>
70003a68: 00002f97     	lui	2, 	->t
70003a6c: 01864305     	xor	s1, t#1, 	->a4
70003a70: 1406         	c.movr	s5, 	->a0
70003a72: 23c6         	c.movr	s4, 	->a2
70003a74: 2b46         	c.movr	s2, 	->a3
70003a76: 02000195     	addi	zero, 32, 	->a1
70003a7a: 3cd2         	C.BSTART.STD	DIRECT, 0x70004214 <.LBB4_233>
70003a7c: 00d7cfc5     	cmp.lt	s4, s2, 	->t
70003a80: c0f68177     	csel	t#1, s2, s4, 	->a0

0000000070003a84 <.LBB4_115>:
; .LBB4_115():
70003a84: 01c4         	C.BSTART.STD	COND, 0x70003abc <.LBB4_119>
70003a86: 00122075     	setc.andi	a2, 1
70003a8a: beb33fd9     	sdi	a4, [s0, -264]
70003a8e: 01d4         	C.BSTART.STD	COND, 0x70003ac8 <.LBB4_120>
70003a90: 535c         	c.sext.w	s2, ->t
70003a92: 3b9acf97     	lui	244140, 	->t
70003a96: a00c0f95     	addi	t#1, 2560, 	->t
70003a9a: 018d0fc5     	cmp.eq	t#3, t#1, 	->t
70003a9e: 0099efc5     	cmp.ltu	s8, a7, 	->t
70003aa2: c668         	c.and	t#2, t#1, ->t
70003aa4: 0626         	c.setc.eq	t#1, zero
70003aa6: 40700f95     	addi	zero, 1031, 	->t
70003aaa: 034c7815     	slli	t#1, 52, 	->s5
70003aae: 0074         	C.BSTART.STD	COND, 0x70003abc <.LBB4_119>
70003ab0: ffc4cf99     	lbui	[a7, -4], 	->t
70003ab4: 001c2075     	setc.andi	t#1, 1
70003ab8: 00a2         	C.BSTART.STD	DIRECT, 0x70003acc <.LBB4_121>
70003aba: 8806         	c.movr	zero, 	->s6

0000000070003abc <.LBB4_119>:
; .LBB4_119():
70003abc: 0082         	C.BSTART.STD	DIRECT, 0x70003acc <.LBB4_121>
70003abe: 8856         	c.movi	1, 	->s6
70003ac0: 40700f95     	addi	zero, 1031, 	->t
70003ac4: 034c7815     	slli	t#1, 52, 	->s5

0000000070003ac8 <.LBB4_120>:
; .LBB4_120():
70003ac8: 0800         	C.BSTART.STD	
70003aca: 8806         	c.movr	zero, 	->s6

0000000070003acc <.LBB4_121>:
; .LBB4_121():
70003acc: 02f4         	C.BSTART.STD	COND, 0x70003b2a <.LBB4_124>
70003ace: 2006         	c.movr	zero, 	->a2
70003ad0: 05e69fe7     	bxu	s2, 1, 31, 	->t
70003ad4: 01846f45     	cmp.ltu	a6, t#1, 	->u
70003ad8: 01840fc5     	cmp.eq	a6, t#1, 	->t
70003adc: 005c2f05     	and	t#1, a3, 	->u
70003ae0: 07ffff97     	lui	32767, 	->t
70003ae4: 023c7f95     	slli	t#1, 35, 	->t
70003ae8: 03ffff97     	lui	16383, 	->t
70003aec: 024c7f95     	slli	t#1, 36, 	->t
70003af0: e1ac0ff7     	csel	u#1, t#1, t#3, 	->t
70003af4: 01ffff97     	lui	8191, 	->t
70003af8: 025c7f95     	slli	t#1, 37, 	->t
70003afc: e9ac02f7     	csel	u#2, t#1, t#3, 	->a3
70003b00: fe45b319     	ldi	[s0, -224], 	->a4
70003b04: 01b6         	c.setc.ne	a4, zero
70003b06: bcb3bfd9     	sdi	a5, [s0, -272]
70003b0a: 0104         	C.BSTART.STD	COND, 0x70003b2a <.LBB4_124>
70003b0c: fe65b319     	ldi	[s0, -208], 	->a4
70003b10: 00034f89     	lbu	[a4, zero], 	->t
70003b14: 02dc1075     	setc.nei	t#1, 45
70003b18: 0800         	C.BSTART.STD	
70003b1a: 2006         	c.movr	zero, 	->a2
70003b1c: ffd6         	c.movi	-1, 	->t
70003b1e: 03fc7f95     	slli	t#1, 63, 	->t
70003b22: 01884805     	xor	s5, t#1, 	->s5
70003b26: 0182b285     	or	a3, t#1, 	->a3

0000000070003b2a <.LBB4_124>:
; .LBB4_124():
70003b2a: 00058891     	BSTART.STD	DIRECT, 0x7000514c <__addtf3>
70003b2e: 52d6         	c.setret	0x70003b44, ->ra <.LBB4_124+0x1a>
70003b30: 008a1325     	subw	x0, a6, 	->a4
70003b34: b0b33fd9     	sdi	a4, [s0, -320]
70003b38: b2b4bfd9     	sdi	a7, [s0, -312]
70003b3c: 3004a049     	sw	a4, [a7, zero<<2]
70003b40: 1446         	c.movr	s6, 	->a0
70003b42: 1c06         	c.movr	s5, 	->a1
; ():
70003b44: 6f82         	C.BSTART.STD	DIRECT, 0x70004934 <__netf2>
70003b46: 50d6         	c.setret	0x70003b4c, ->ra <.LBB4_124+0x22>
70003b48: 2446         	c.movr	s6, 	->a2
70003b4a: 2c06         	c.movr	s5, 	->a3
70003b4c: 0364         	C.BSTART.STD	COND, 0x70003bb8 <.LBB4_133>
70003b4e: 00a6         	c.setc.eq	a0, zero
70003b50: 03d4         	C.BSTART.STD	COND, 0x70003bca <.LBB4_134>
70003b52: fd85b119     	ldi	[s0, -320], 	->a0
70003b56: 00d10fa5     	addw	a0, s2, 	->t
70003b5a: fd95b499     	ldi	[s0, -312], 	->a7
70003b5e: c004a049     	sw	t#1, [a7, zero<<2]
70003b62: 3b9acf97     	lui	244140, 	->t
70003b66: a00c0f95     	addi	t#1, 2560, 	->t
70003b6a: 018d6065     	setc.ltu	t#3, t#1
70003b6e: fdf5b319     	ldi	[s0, -264], 	->a4
70003b72: fde5b399     	ldi	[s0, -272], 	->a5
70003b76: 0800         	C.BSTART.STD	
70003b78: 00449115     	subi	a7, 4, 	->a0
70003b7c: fe55ba19     	ldi	[s0, -216], 	->x0

0000000070003b80 <.LBB4_129>:
; .LBB4_129():
70003b80: 00b4         	C.BSTART.STD	COND, 0x70003b96 <.LBB4_131>
70003b82: 01317065     	setc.geu	a0, s8
70003b86: 02202059     	swi	zero, [a0, 4]
70003b8a: 0800         	C.BSTART.STD	
70003b8c: 00499f95     	subi	s8, 4, 	->t
70003b90: ff302fd9     	swi	zero, [s8, -4]
70003b94: 9e06         	c.movr	t#1, 	->s8

0000000070003b96 <.LBB4_131>:
; .LBB4_131():
70003b96: ff54         	C.BSTART.STD	COND, 0x70003b80 <.LBB4_129>
70003b98: 00012f89     	lw	[a0, zero], 	->t
70003b9c: 0e0c         	c.addi	t#1, 1, ->t
70003b9e: c0012049     	sw	t#1, [a0, zero<<2]
70003ba2: 00411115     	subi	a0, 4, 	->a0
70003ba6: 3b9acf97     	lui	244140, 	->t
70003baa: 9ffc0f95     	addi	t#1, 2559, 	->t
70003bae: 03ac6065     	setc.ltu	t#1, t#3.sw
70003bb2: 00f2         	C.BSTART.STD	DIRECT, 0x70003bd0 <.LBB4_135>
70003bb4: 00410495     	addi	a0, 4, 	->a7

0000000070003bb8 <.LBB4_133>:
; .LBB4_133():
70003bb8: 0212         	C.BSTART.STD	DIRECT, 0x70003bfa <.LBB4_138>
70003bba: fe55ba19     	ldi	[s0, -216], 	->x0
70003bbe: fdf5b319     	ldi	[s0, -264], 	->a4
70003bc2: fde5b399     	ldi	[s0, -272], 	->a5
70003bc6: fd95b499     	ldi	[s0, -312], 	->a7

0000000070003bca <.LBB4_134>:
; .LBB4_134():
70003bca: 0800         	C.BSTART.STD	
70003bcc: fe55ba19     	ldi	[s0, -216], 	->x0

0000000070003bd0 <.LBB4_135>:
; .LBB4_135():
70003bd0: 0154         	C.BSTART.STD	COND, 0x70003bfa <.LBB4_138>
70003bd2: 9b98         	c.sub	s3, s8, ->t
70003bd4: 18ac         	c.srli	t#1, 2, ->t
70003bd6: 198c07a5     	addw	t#1, t#1<<3, 	->s4
70003bda: 0009e189     	lwu	[s8, zero], 	->a1
70003bde: 00a1e075     	setc.ltui	a1, 10
70003be2: 0800         	C.BSTART.STD	
70003be4: 1296         	c.movi	10, 	->a0
70003be6: 02303185     	or	zero, a1.sw, 	->a1
70003bea: 2296         	c.movi	10, 	->a2

0000000070003bec <.LBB4_137>:
; .LBB4_137():
70003bec: 0004         	C.BSTART.STD	COND, 0x70003bec <.LBB4_137>
70003bee: 00220247     	mul	a2, a0, 	->a2
70003bf2: 0241f065     	setc.geu	a1, a2.sw
70003bf6: 00178795     	addi	s4, 1, 	->s4

0000000070003bfa <.LBB4_138>:
; .LBB4_138():
70003bfa: 0800         	C.BSTART.STD	
70003bfc: 224c         	c.addi	a7, 4, ->t
70003bfe: 012c6fc5     	cmp.ltu	t#1, s7, 	->t
70003c02: c12c8977     	csel	t#1, t#2, s7, 	->s7

0000000070003c06 <.LBB4_139>:
; .LBB4_139():
70003c06: 0800         	C.BSTART.STD	
70003c08: 00e91185     	sub	s7, s3, 	->a1

0000000070003c0c <.LBB4_140>:
; .LBB4_140():
70003c0c: 00c4         	C.BSTART.STD	COND, 0x70003c24 <.LBB4_142>
70003c0e: 8486         	c.movr	s7, 	->s5
70003c10: 0109f065     	setc.geu	s8, s5
70003c14: 10c6         	c.movr	a1, 	->a0
70003c16: ffb4         	C.BSTART.STD	COND, 0x70003c0c <.LBB4_140>
70003c18: 00481915     	subi	s5, 4, 	->s7
70003c1c: fc0a         	c.lwi	[s5, -4], ->t
70003c1e: 0626         	c.setc.eq	t#1, zero
70003c20: 00411195     	subi	a0, 4, 	->a1

0000000070003c24 <.LBB4_142>:
; .LBB4_142():
70003c24: 0744         	C.BSTART.STD	COND, 0x70003d0c <.LBB4_153>
70003c26: 01e6         	c.setc.eq	a5, zero
70003c28: 0109e945     	cmp.ltu	s8, s5, 	->s7
70003c2c: 0704         	C.BSTART.STD	COND, 0x70003d0c <.LBB4_153>
70003c2e: f856         	c.movi	1, 	->t
70003c30: 31860f77     	csel	a4, s1, t#1, 	->u
70003c34: 53dc         	c.sext.w	s4, ->t
70003c36: 01cc4fc5     	cmp.lt	t#1, u#1, 	->t
70003c3a: fed6         	c.movi	-5, 	->t
70003c3c: 02fc4fc5     	cmp.lt	t#1, s4.sw, 	->t
70003c40: 018d2f05     	and	t#3, t#1, 	->u
70003c44: fe85bf99     	ldi	[s0, -192], 	->t
70003c48: 018e0fa5     	addw	u#1, t#1, 	->t
70003c4c: 002c1f95     	subi	t#1, 2, 	->t
70003c50: d0bc3fd9     	sdi	t#1, [s0, -192]
70003c54: fff7cf95     	xori	s4, -1, 	->t
70003c58: ffd6         	c.movi	-1, 	->t
70003c5a: e18c8ff7     	csel	u#1, t#2, t#1, 	->t
70003c5e: 01dc0625     	addw	t#1, u#2, 	->s1
70003c62: fea5b199     	ldi	[s0, -176], 	->a1
70003c66: 0081aa15     	andi	a1, 8, 	->x0
70003c6a: 0536         	c.setc.ne	x0, zero
70003c6c: 0274         	C.BSTART.STD	COND, 0x70003cba <.LBB4_150>
70003c6e: 04a6         	c.setc.eq	s7, zero
70003c70: 1a56         	c.movi	9, 	->a1
70003c72: 0244         	C.BSTART.STD	COND, 0x70003cba <.LBB4_150>
70003c74: fff86219     	lwui	[s5, -4], 	->a2
70003c78: 0126         	c.setc.eq	a2, zero
70003c7a: 0134         	C.BSTART.STD	COND, 0x70003ca0 <.LBB4_148>
70003c7c: cccccf97     	lui	-209716, 	->t
70003c80: ccdc0f95     	addi	t#1, 3277, 	->t
70003c84: 01820fc7     	mul	a2, t#1, 	->t
70003c88: 05ec1fe7     	bxu	t#1, 1, 31, 	->t
70003c8c: f99c3fa5     	orw	t#1, t#2<<31, 	->t
70003c90: 19999f97     	lui	104857, 	->t
70003c94: 999c0f95     	addi	t#1, 2457, 	->t
70003c98: 01ac7065     	setc.geu	t#1, t#3
70003c9c: 00f2         	C.BSTART.STD	DIRECT, 0x70003cba <.LBB4_150>
70003c9e: 1806         	c.movr	zero, 	->a1

0000000070003ca0 <.LBB4_148>:
; .LBB4_148():
70003ca0: 0800         	C.BSTART.STD	
70003ca2: 1806         	c.movr	zero, 	->a1
70003ca4: 2a96         	c.movi	10, 	->a3
70003ca6: 3296         	c.movi	10, 	->a4

0000000070003ca8 <.LBB4_149>:
; .LBB4_149():
70003ca8: 0004         	C.BSTART.STD	COND, 0x70003ca8 <.LBB4_149>
70003caa: 00530347     	mul	a4, a3, 	->a4
70003cae: 00627fd7     	remuw	a2, a4, 	->t
70003cb2: 561c         	c.sext.w	t#1, ->t
70003cb4: 0626         	c.setc.eq	t#1, zero
70003cb6: 00118195     	addi	a1, 1, 	->a1

0000000070003cba <.LBB4_150>:
; .LBB4_150():
70003cba: 0194         	C.BSTART.STD	COND, 0x70003cec <.LBB4_152>
70003cbc: fe85b219     	ldi	[s0, -192], 	->a2
70003cc0: fdf22fb5     	andiw	a2, -33, 	->t
70003cc4: 046c1075     	setc.nei	t#1, 70
70003cc8: 00216f95     	srai	a0, 2, 	->t
70003ccc: 082c0105     	add	t#1, a0<<1, 	->a0
70003cd0: 01e2         	C.BSTART.STD	DIRECT, 0x70003d0c <.LBB4_153>
70003cd2: a006         	c.movr	zero, 	->x0
70003cd4: 04311f85     	sub	a0, a1.uw, 	->t
70003cd8: 009c1f95     	subi	t#1, 9, 	->t
70003cdc: 01804fc5     	cmp.lt	zero, t#1, 	->t
70003ce0: c00c8ff7     	csel	t#1, t#2, zero, 	->t
70003ce4: 00cc4fc5     	cmp.lt	t#1, s1, 	->t
70003ce8: c0cc8677     	csel	t#1, t#2, s1, 	->s1

0000000070003cec <.LBB4_152>:
; .LBB4_152():
70003cec: 0800         	C.BSTART.STD	
70003cee: a006         	c.movr	zero, 	->x0
70003cf0: 02f10f85     	add	a0, s4.sw, 	->t
70003cf4: 043c1f85     	sub	t#1, a1.uw, 	->t
70003cf8: 009c1f95     	subi	t#1, 9, 	->t
70003cfc: 01804fc5     	cmp.lt	zero, t#1, 	->t
70003d00: c00c8ff7     	csel	t#1, t#2, zero, 	->t
70003d04: 00cc4fc5     	cmp.lt	t#1, s1, 	->t
70003d08: c0cc8677     	csel	t#1, t#2, s1, 	->s1

0000000070003d0c <.LBB4_153>:
; .LBB4_153():
70003d0c: 2844         	C.BSTART.STD	COND, 0x70004214 <.LBB4_233>
70003d0e: a338         	c.or	s1, x0, ->t
70003d10: 03803885     	or	zero, t#1.sw, 	->s6
70003d14: 000891d5     	cmp.nei	s6, 0, 	->a1
70003d18: 7fffff97     	lui	524287, 	->t
70003d1c: ffec0f95     	addi	t#1, 4094, 	->t
70003d20: 1e18         	c.sub	t#1, a1, ->t
70003d22: 02cc4065     	setc.lt	t#1, s1.sw
70003d26: 17d6         	c.movi	-1, 	->a0
70003d28: 01a4         	C.BSTART.STD	COND, 0x70003d5c <.LBB4_157>
70003d2a: 00360fa5     	addw	s1, a1, 	->t
70003d2e: 001c0215     	addi	t#1, 1, 	->a2
70003d32: fe85bf99     	ldi	[s0, -192], 	->t
70003d36: fdfc21b5     	andiw	t#1, -33, 	->a1
70003d3a: 04619075     	setc.nei	a1, 70
70003d3e: 26b4         	C.BSTART.STD	COND, 0x70004214 <.LBB4_233>
70003d40: 7fffff97     	lui	524287, 	->t
70003d44: fffc0f95     	addi	t#1, 4095, 	->t
70003d48: 01824fa5     	xorw	a2, t#1, 	->t
70003d4c: 02fc4065     	setc.lt	t#1, s4.sw
70003d50: 0692         	C.BSTART.STD	DIRECT, 0x70003e22 <.LBB4_167>
70003d52: 02f04fc5     	cmp.lt	zero, s4.sw, 	->t
70003d56: 53dc         	c.sext.w	s4, ->t
70003d58: c80c02f7     	csel	t#2, t#1, zero, 	->a3

0000000070003d5c <.LBB4_157>:
; .LBB4_157():
70003d5c: 0254         	C.BSTART.STD	COND, 0x70003da6 <.LBB4_160>
70003d5e: 02f03285     	or	zero, s4.sw, 	->a3
70003d62: 01f2ef95     	srai	a3, 31, 	->t
70003d66: 0187cf85     	xor	s4, t#1, 	->t
70003d6a: 019c1fa5     	subw	t#1, t#2, 	->t
70003d6e: 00ac6075     	setc.ltui	t#1, 10
70003d72: 81fc23e7     	bic	t#1, 32, 32, 	->a5
70003d76: 0800         	C.BSTART.STD	
70003d78: fe95b499     	ldi	[s0, -184], 	->a7
70003d7c: 4246         	c.movr	a7, 	->a6

0000000070003d7e <.LBB4_159>:
; .LBB4_159():
70003d7e: 0004         	C.BSTART.STD	COND, 0x70003d7e <.LBB4_159>
70003d80: f1c6         	c.movr	a5, 	->u
70003d82: fa96         	c.movi	10, 	->t
70003d84: 018393d7     	divu	a5, t#1, 	->a5
70003d88: 01838fc7     	mul	a5, t#1, 	->t
70003d8c: c718         	c.sub	u#1, t#1, ->t
70003d8e: 101c3fe7     	bis	t#1, 4, 2, 	->t
70003d92: fe8c0fd9     	sbi	t#1, [a6, -1]
70003d96: 00141315     	subi	a6, 1, 	->a4
70003d9a: 4186         	c.movr	a4, 	->a6
70003d9c: 06300f95     	addi	zero, 99, 	->t
70003da0: 01cc6065     	setc.ltu	t#1, u#1
70003da4: 0052         	C.BSTART.STD	DIRECT, 0x70003dae <.LBB4_161>

0000000070003da6 <.LBB4_160>:
; .LBB4_160():
70003da6: 0800         	C.BSTART.STD	
70003da8: fe95b499     	ldi	[s0, -184], 	->a7
70003dac: 3246         	c.movr	a7, 	->a4

0000000070003dae <.LBB4_161>:
; .LBB4_161():
70003dae: 0094         	C.BSTART.STD	COND, 0x70003dc0 <.LBB4_163>
70003db0: 01e6         	c.setc.eq	a5, zero
70003db2: 0800         	C.BSTART.STD	
70003db4: 03038f95     	addi	a5, 48, 	->t
70003db8: fe6c0fd9     	sbi	t#1, [a4, -1]
70003dbc: 00131315     	subi	a4, 1, 	->a4

0000000070003dc0 <.LBB4_163>:
; .LBB4_163():
70003dc0: 0154         	C.BSTART.STD	COND, 0x70003dea <.LBB4_165>
70003dc2: 0002c2d5     	cmp.lti	a3, 0, 	->a3
70003dc6: 00649405     	sub	a7, a4, 	->a6
70003dca: f856         	c.movi	1, 	->t
70003dcc: 008c4065     	setc.lt	t#1, a6

0000000070003dd0 <.LBB4_164>:
; .LBB4_164():
70003dd0: 0004         	C.BSTART.STD	COND, 0x70003dd0 <.LBB4_164>
70003dd2: 00131395     	subi	a4, 1, 	->a5
70003dd6: 03000f95     	addi	zero, 48, 	->t
70003dda: fe6c0fd9     	sbi	t#1, [a4, -1]
70003dde: 31c6         	c.movr	a5, 	->a4
70003de0: 00140415     	addi	a6, 1, 	->a6
70003de4: 00244075     	setc.lti	a6, 2
70003de8: 0032         	C.BSTART.STD	DIRECT, 0x70003dee <.LBB4_166>

0000000070003dea <.LBB4_165>:
; .LBB4_165():
70003dea: 0800         	C.BSTART.STD	
70003dec: 3986         	c.movr	a4, 	->a5

0000000070003dee <.LBB4_166>:
; .LBB4_166():
70003dee: 2134         	C.BSTART.STD	COND, 0x70004214 <.LBB4_233>
70003df0: 02b00f95     	addi	zero, 43, 	->t
70003df4: 02d00f95     	addi	zero, 45, 	->t
70003df8: 299c0ff7     	csel	a3, t#1, t#2, 	->t
70003dfc: fe7c0fd9     	sbi	t#1, [a5, -1]
70003e00: fe85bf99     	ldi	[s0, -192], 	->t
70003e04: fc7c0fd9     	sbi	t#1, [a5, -2]
70003e08: 00239315     	subi	a5, 2, 	->a4
70003e0c: 00649285     	sub	a7, a4, 	->a3
70003e10: 7fffff97     	lui	524287, 	->t
70003e14: fffc0f95     	addi	t#1, 4095, 	->t
70003e18: 01824f85     	xor	a2, t#1, 	->t
70003e1c: 6e1c         	c.zext.w	t#1, ->t
70003e1e: 005c4065     	setc.lt	t#1, a3

0000000070003e22 <.LBB4_167>:
; .LBB4_167():
70003e22: 1f94         	C.BSTART.STD	COND, 0x70004214 <.LBB4_233>
70003e24: 00428225     	addw	a3, a2, 	->a2
70003e28: 7fffff97     	lui	524287, 	->t
70003e2c: fffc0f95     	addi	t#1, 4095, 	->t
70003e30: fe75b299     	ldi	[s0, -200], 	->a3
70003e34: 0182cf85     	xor	a3, t#1, 	->t
70003e38: 004c4065     	setc.lt	t#1, a2
70003e3c: 9b32         	C.BSTART.STD	DIRECT, 0x700031a2 <pad>
70003e3e: 5516         	c.setret	0x70003e66, ->ra <.LBB4_167+0x44>
70003e40: bab33fd9     	sdi	a4, [s0, -280]
70003e44: caba3fd9     	sdi	x0, [s0, -216]
70003e48: 046186d5     	cmp.eqi	a1, 70, 	->s2
70003e4c: 005202a5     	addw	a2, a3, 	->a3
70003e50: feb5b799     	ldi	[s0, -168], 	->s4
70003e54: 13c6         	c.movr	s4, 	->a0
70003e56: fec5b219     	ldi	[s0, -160], 	->a2
70003e5a: c6b2bfd9     	sdi	a3, [s0, -232]
70003e5e: fea5b319     	ldi	[s0, -176], 	->a4
70003e62: 02000195     	addi	zero, 32, 	->a1
; ():
70003e66: 00f4         	C.BSTART.STD	COND, 0x70003e84 <.LBB4_172>
70003e68: 0007cf89     	lbu	[s4, zero], 	->t
70003e6c: 020c2075     	setc.andi	t#1, 32
70003e70: 2d82         	C.BSTART.STD	DIRECT, 0x70004420 <__fwritex>
70003e72: 5196         	c.setret	0x70003e7e, ->ra <.LBB4_167+0x5c>
70003e74: fe65b119     	ldi	[s0, -208], 	->a0
70003e78: fe75b199     	ldi	[s0, -200], 	->a1
70003e7c: 23c6         	c.movr	s4, 	->a2
70003e7e: 0800         	C.BSTART.STD	
70003e80: feb5b799     	ldi	[s0, -168], 	->s4

0000000070003e84 <.LBB4_172>:
; .LBB4_172():
70003e84: 98f2         	C.BSTART.STD	DIRECT, 0x700031a2 <pad>
70003e86: 5396         	c.setret	0x70003ea2, ->ra <.LBB4_172+0x1e>
70003e88: 00010f97     	lui	16, 	->t
70003e8c: fea5bf99     	ldi	[s0, -176], 	->t
70003e90: 019c4305     	xor	t#1, t#2, 	->a4
70003e94: 13c6         	c.movr	s4, 	->a0
70003e96: fec5b219     	ldi	[s0, -160], 	->a2
70003e9a: fe35b299     	ldi	[s0, -232], 	->a3
70003e9e: 03000195     	addi	zero, 48, 	->a1
; ():
70003ea2: 0dd4         	C.BSTART.STD	COND, 0x7000405c <.LBB4_207>
70003ea4: 0366         	c.setc.eq	s2, zero
70003ea6: 0800         	C.BSTART.STD	
70003ea8: 01376fc5     	cmp.ltu	s3, s8, 	->t
70003eac: c13706f7     	csel	t#1, s3, s8, 	->s2
70003eb0: 9346         	c.movr	s2, 	->s7
70003eb2: 08059f95     	subi	s0, 128, 	->t
70003eb6: 009c0795     	addi	t#1, 9, 	->s4
70003eba: feb5b999     	ldi	[s0, -168], 	->s8

0000000070003ebe <.LBB4_175>:
; .LBB4_175():
70003ebe: 01f4         	C.BSTART.STD	COND, 0x70003efc <.LBB4_179>
70003ec0: 00096109     	lwu	[s7, zero], 	->a0
70003ec4: 00a16075     	setc.ltui	a0, 10
70003ec8: 1a56         	c.movi	9, 	->a1
70003eca: 0800         	C.BSTART.STD	
70003ecc: 1a16         	c.movi	8, 	->a1

0000000070003ece <.LBB4_177>:
; .LBB4_177():
70003ece: 0004         	C.BSTART.STD	COND, 0x70003ece <.LBB4_177>
70003ed0: f086         	c.movr	a0, 	->u
70003ed2: fa96         	c.movi	10, 	->t
70003ed4: 01811157     	divu	a0, t#1, 	->a0
70003ed8: 01810fc7     	mul	a0, t#1, 	->t
70003edc: c718         	c.sub	u#1, t#1, ->t
70003ede: 101c3fe7     	bis	t#1, 4, 2, 	->t
70003ee2: 08059f95     	subi	s0, 128, 	->t
70003ee6: c83c0049     	sb	t#2, [t#1, a1]
70003eea: 00119195     	subi	a1, 1, 	->a1
70003eee: 06300f95     	addi	zero, 99, 	->t
70003ef2: 01cc6065     	setc.ltu	t#1, u#1
70003ef6: 0800         	C.BSTART.STD	
70003ef8: 00118195     	addi	a1, 1, 	->a1

0000000070003efc <.LBB4_179>:
; .LBB4_179():
70003efc: 00d4         	C.BSTART.STD	COND, 0x70003f16 <.LBB4_181>
70003efe: 00a6         	c.setc.eq	a0, zero
70003f00: 0800         	C.BSTART.STD	
70003f02: 03010f95     	addi	a0, 48, 	->t
70003f06: 00119f95     	subi	a1, 1, 	->t
70003f0a: 08059f95     	subi	s0, 128, 	->t
70003f0e: 1e08         	c.add	t#1, a1, ->t
70003f10: 1e86         	c.movr	t#3, 	->a1
70003f12: ff8d8fd9     	sbi	t#4, [t#1, -1]

0000000070003f16 <.LBB4_181>:
; .LBB4_181():
70003f16: 0164         	C.BSTART.STD	COND, 0x70003f42 <.LBB4_184>
70003f18: 6ca6         	c.setc.eq	s7, s2
70003f1a: 08059115     	subi	s0, 128, 	->a0
70003f1e: 00310205     	add	a0, a1, 	->a2
70003f22: 01a4         	C.BSTART.STD	COND, 0x70003f56 <.LBB4_186>
70003f24: 00417065     	setc.geu	a0, a2

0000000070003f28 <.LBB4_183>:
; .LBB4_183():
70003f28: 0004         	C.BSTART.STD	COND, 0x70003f28 <.LBB4_183>
70003f2a: 00121f95     	subi	a2, 1, 	->t
70003f2e: 03000f95     	addi	zero, 48, 	->t
70003f32: fe4c0fd9     	sbi	t#1, [a2, -1]
70003f36: 2646         	c.movr	t#2, 	->a2
70003f38: 08059115     	subi	s0, 128, 	->a0
70003f3c: 01916065     	setc.ltu	a0, t#2
70003f40: 00f2         	C.BSTART.STD	DIRECT, 0x70003f5e <.LBB4_188>

0000000070003f42 <.LBB4_184>:
; .LBB4_184():
70003f42: 00c4         	C.BSTART.STD	COND, 0x70003f5a <.LBB4_187>
70003f44: 00919075     	setc.nei	a1, 9
70003f48: 00b2         	C.BSTART.STD	DIRECT, 0x70003f5e <.LBB4_188>
70003f4a: 00121115     	subi	a2, 1, 	->a0
70003f4e: 03000f95     	addi	zero, 48, 	->t
70003f52: fe4c0fd9     	sbi	t#1, [a2, -1]

0000000070003f56 <.LBB4_186>:
; .LBB4_186():
70003f56: 0042         	C.BSTART.STD	DIRECT, 0x70003f5e <.LBB4_188>
70003f58: 1106         	c.movr	a2, 	->a0

0000000070003f5a <.LBB4_187>:
; .LBB4_187():
70003f5a: 0800         	C.BSTART.STD	
70003f5c: 1106         	c.movr	a2, 	->a0

0000000070003f5e <.LBB4_188>:
; .LBB4_188():
70003f5e: 00a4         	C.BSTART.STD	COND, 0x70003f72 <.LBB4_190>
70003f60: 0009cf89     	lbu	[s8, zero], 	->t
70003f64: 020c2075     	setc.andi	t#1, 32
70003f68: 25c2         	C.BSTART.STD	DIRECT, 0x70004420 <__fwritex>
70003f6a: 5116         	c.setret	0x70003f72, ->ra <.LBB4_190>
70003f6c: 00279185     	sub	s4, a0, 	->a1
70003f70: 24c6         	c.movr	s8, 	->a2

0000000070003f72 <.LBB4_190>:
; ():
70003f72: fa64         	C.BSTART.STD	COND, 0x70003ebe <.LBB4_175>
70003f74: 00490915     	addi	s7, 4, 	->s7
70003f78: 01277065     	setc.geu	s3, s7
70003f7c: 0114         	C.BSTART.STD	COND, 0x70003f9e <.LBB4_194>
70003f7e: 0466         	c.setc.eq	s6, zero
70003f80: fe35b699     	ldi	[s0, -232], 	->s2
70003f84: 00d4         	C.BSTART.STD	COND, 0x70003f9e <.LBB4_194>
70003f86: 0009cf89     	lbu	[s8, zero], 	->t
70003f8a: 020c2075     	setc.andi	t#1, 32
70003f8e: 2492         	C.BSTART.STD	DIRECT, 0x70004420 <__fwritex>
70003f90: 51d6         	c.setret	0x70003f9e, ->ra <.LBB4_194>
70003f92: 00002f87     	addtpc	2, 	->t
70003f96: 19ac1115     	subi	t#1, 410, 	->a0
70003f9a: 24c6         	c.movr	s8, 	->a2
70003f9c: 1856         	c.movi	1, 	->a1

0000000070003f9e <.LBB4_194>:
70003f9e: 1474         	C.BSTART.STD	COND, 0x7000422c <.LBB4_236>
70003fa0: 01096fc5     	cmp.ltu	s7, s5, 	->t
70003fa4: 02c04fc5     	cmp.lt	zero, s1.sw, 	->t
70003fa8: c668         	c.and	t#2, t#1, ->t
70003faa: 0626         	c.setc.eq	t#1, zero

0000000070003fac <.LBB4_195>:
; .LBB4_195():
70003fac: 01b4         	C.BSTART.STD	COND, 0x70003fe2 <.LBB4_198>
70003fae: 00096109     	lwu	[s7, zero], 	->a0
70003fb2: 00a16075     	setc.ltui	a0, 10
70003fb6: 0800         	C.BSTART.STD	
70003fb8: 23c6         	c.movr	s4, 	->a2

0000000070003fba <.LBB4_197>:
; .LBB4_197():
70003fba: 0004         	C.BSTART.STD	COND, 0x70003fba <.LBB4_197>
70003fbc: f086         	c.movr	a0, 	->u
70003fbe: fa96         	c.movi	10, 	->t
70003fc0: 01811157     	divu	a0, t#1, 	->a0
70003fc4: 01810fc7     	mul	a0, t#1, 	->t
70003fc8: c718         	c.sub	u#1, t#1, ->t
70003fca: 101c3fe7     	bis	t#1, 4, 2, 	->t
70003fce: fe4c0fd9     	sbi	t#1, [a2, -1]
70003fd2: 00121195     	subi	a2, 1, 	->a1
70003fd6: 20c6         	c.movr	a1, 	->a2
70003fd8: 06300f95     	addi	zero, 99, 	->t
70003fdc: 01cc6065     	setc.ltu	t#1, u#1
70003fe0: 0032         	C.BSTART.STD	DIRECT, 0x70003fe6 <.LBB4_199>

0000000070003fe2 <.LBB4_198>:
; .LBB4_198():
70003fe2: 0800         	C.BSTART.STD	
70003fe4: 1bc6         	c.movr	s4, 	->a1

0000000070003fe6 <.LBB4_199>:
; .LBB4_199():
70003fe6: 0094         	C.BSTART.STD	COND, 0x70003ff8 <.LBB4_201>
70003fe8: 00a6         	c.setc.eq	a0, zero
70003fea: 0800         	C.BSTART.STD	
70003fec: 03010f95     	addi	a0, 48, 	->t
70003ff0: fe3c0fd9     	sbi	t#1, [a1, -1]
70003ff4: 00119195     	subi	a1, 1, 	->a1

0000000070003ff8 <.LBB4_201>:
; .LBB4_201():
70003ff8: 0124         	C.BSTART.STD	COND, 0x7000401c <.LBB4_203>
70003ffa: 08059f95     	subi	s0, 128, 	->t
70003ffe: 003c7065     	setc.geu	t#1, a1

0000000070004002 <.LBB4_202>:
; .LBB4_202():
70004002: 0004         	C.BSTART.STD	COND, 0x70004002 <.LBB4_202>
70004004: 00119115     	subi	a1, 1, 	->a0
70004008: 03000f95     	addi	zero, 48, 	->t
7000400c: fe3c0fd9     	sbi	t#1, [a1, -1]
70004010: 1886         	c.movr	a0, 	->a1
70004012: 08059f95     	subi	s0, 128, 	->t
70004016: 002c6065     	setc.ltu	t#1, a0
7000401a: 0032         	C.BSTART.STD	DIRECT, 0x70004020 <.LBB4_204>

000000007000401c <.LBB4_203>:
; .LBB4_203():
7000401c: 0800         	C.BSTART.STD	
7000401e: 10c6         	c.movr	a1, 	->a0

0000000070004020 <.LBB4_204>:
; .LBB4_204():
70004020: 0104         	C.BSTART.STD	COND, 0x70004040 <.LBB4_206>
70004022: 0009cf89     	lbu	[s8, zero], 	->t
70004026: 020c2075     	setc.andi	t#1, 32
7000402a: 1fb2         	C.BSTART.STD	DIRECT, 0x70004420 <__fwritex>
7000402c: 5296         	c.setret	0x70004040, ->ra <.LBB4_206>
7000402e: 531c         	c.sext.w	s1, ->t
70004030: 009c4fd5     	cmp.lti	t#1, 9, 	->t
70004034: fa56         	c.movi	9, 	->t
70004036: c98d0ff7     	csel	t#2, t#3, t#1, 	->t
7000403a: 81fc21e7     	bic	t#1, 32, 32, 	->a1
7000403e: 24c6         	c.movr	s8, 	->a2

0000000070004040 <.LBB4_206>:
; ():
70004040: fb64         	C.BSTART.STD	COND, 0x70003fac <.LBB4_195>
70004042: 00490915     	addi	s7, 4, 	->s7
70004046: 01096fc5     	cmp.ltu	s7, s5, 	->t
7000404a: 00961195     	subi	s1, 9, 	->a1
7000404e: fa56         	c.movi	9, 	->t
70004050: 02cc4fc5     	cmp.lt	t#1, s1.sw, 	->t
70004054: 60c6         	c.movr	a1, 	->s1
70004056: 018d2065     	setc.and	t#3, t#1
7000405a: 0eb2         	C.BSTART.STD	DIRECT, 0x70004230 <.LBB4_237>

000000007000405c <.LBB4_207>:
; .LBB4_207():
7000405c: 0a94         	C.BSTART.STD	COND, 0x700041ae <.LBB4_228>
7000405e: 531c         	c.sext.w	s1, ->t
70004060: 000c4075     	setc.lti	t#1, 0
70004064: 0800         	C.BSTART.STD	
70004066: 74c6         	c.movr	s8, 	->s3
70004068: fe55bf99     	ldi	[s0, -216], 	->t
7000406c: 000c0155     	cmp.eqi	t#1, 0, 	->a0
70004070: b6b13fd9     	sdi	a0, [s0, -296]
70004074: 24cc         	c.addi	s8, 4, ->t
70004076: 918807f7     	csel	s7, s5, t#1, 	->s4
7000407a: 08059f95     	subi	s0, 128, 	->t
7000407e: 009c0895     	addi	t#1, 9, 	->s6

0000000070004082 <.LBB4_209>:
; .LBB4_209():
70004082: 01f4         	C.BSTART.STD	COND, 0x700040c0 <.LBB4_213>
70004084: 00076109     	lwu	[s3, zero], 	->a0
70004088: 00a16075     	setc.ltui	a0, 10
7000408c: 1a56         	c.movi	9, 	->a1
7000408e: 0800         	C.BSTART.STD	
70004090: 1a16         	c.movi	8, 	->a1

0000000070004092 <.LBB4_211>:
; .LBB4_211():
70004092: 0004         	C.BSTART.STD	COND, 0x70004092 <.LBB4_211>
70004094: f086         	c.movr	a0, 	->u
70004096: fa96         	c.movi	10, 	->t
70004098: 01811157     	divu	a0, t#1, 	->a0
7000409c: 01810fc7     	mul	a0, t#1, 	->t
700040a0: c718         	c.sub	u#1, t#1, ->t
700040a2: 101c3fe7     	bis	t#1, 4, 2, 	->t
700040a6: 08059f95     	subi	s0, 128, 	->t
700040aa: c83c0049     	sb	t#2, [t#1, a1]
700040ae: 00119195     	subi	a1, 1, 	->a1
700040b2: 06300f95     	addi	zero, 99, 	->t
700040b6: 01cc6065     	setc.ltu	t#1, u#1
700040ba: 0800         	C.BSTART.STD	
700040bc: 00118195     	addi	a1, 1, 	->a1

00000000700040c0 <.LBB4_213>:
; .LBB4_213():
700040c0: 00d4         	C.BSTART.STD	COND, 0x700040da <.LBB4_215>
700040c2: 00a6         	c.setc.eq	a0, zero
700040c4: 0800         	C.BSTART.STD	
700040c6: 03010f95     	addi	a0, 48, 	->t
700040ca: 00119f95     	subi	a1, 1, 	->t
700040ce: 08059f95     	subi	s0, 128, 	->t
700040d2: 1e08         	c.add	t#1, a1, ->t
700040d4: 1e86         	c.movr	t#3, 	->a1
700040d6: ff8d8fd9     	sbi	t#4, [t#1, -1]

00000000700040da <.LBB4_215>:
; .LBB4_215():
700040da: 00f4         	C.BSTART.STD	COND, 0x700040f8 <.LBB4_217>
700040dc: 00919075     	setc.nei	a1, 9
700040e0: 08059f95     	subi	s0, 128, 	->t
700040e4: 003c0905     	add	t#1, a1, 	->s7
700040e8: 0800         	C.BSTART.STD	
700040ea: 00191f95     	subi	s7, 1, 	->t
700040ee: 03000f95     	addi	zero, 48, 	->t
700040f2: ff2c0fd9     	sbi	t#1, [s7, -1]
700040f6: 9646         	c.movr	t#2, 	->s7

00000000700040f8 <.LBB4_217>:
; .LBB4_217():
700040f8: 0144         	C.BSTART.STD	COND, 0x70004120 <.LBB4_220>
700040fa: 9ba6         	c.setc.eq	s3, s8
700040fc: 0574         	C.BSTART.STD	COND, 0x700041aa <.LBB4_240>
700040fe: 08059f95     	subi	s0, 128, 	->t
70004102: 012c7065     	setc.geu	t#1, s7

0000000070004106 <.LBB4_219>:
; .LBB4_219():
70004106: 0004         	C.BSTART.STD	COND, 0x70004106 <.LBB4_219>
70004108: 00191815     	subi	s7, 1, 	->s5
7000410c: 03000f95     	addi	zero, 48, 	->t
70004110: ff2c0fd9     	sbi	t#1, [s7, -1]
70004114: 9406         	c.movr	s5, 	->s7
70004116: 08059f95     	subi	s0, 128, 	->t
7000411a: 010c6065     	setc.ltu	t#1, s5
7000411e: 0262         	C.BSTART.STD	DIRECT, 0x7000416a <.LBB4_225>

0000000070004120 <.LBB4_220>:
; .LBB4_220():
70004120: 00d4         	C.BSTART.STD	COND, 0x7000413a <.LBB4_222>
70004122: feb5b119     	ldi	[s0, -168], 	->a0
70004126: 00014f89     	lbu	[a0, zero], 	->t
7000412a: 020c2075     	setc.andi	t#1, 32
7000412e: 1792         	C.BSTART.STD	DIRECT, 0x70004420 <__fwritex>
70004130: 5156         	c.setret	0x7000413a, ->ra <.LBB4_222>
70004132: 1486         	c.movr	s7, 	->a0
70004134: feb5b219     	ldi	[s0, -168], 	->a2
70004138: 1856         	c.movi	1, 	->a1

000000007000413a <.LBB4_222>:
; ():
7000413a: 0184         	C.BSTART.STD	COND, 0x7000416a <.LBB4_225>
7000413c: 00190815     	addi	s7, 1, 	->s5
70004140: 531c         	c.sext.w	s1, ->t
70004142: 001c4fd5     	cmp.lti	t#1, 1, 	->t
70004146: fdb5b119     	ldi	[s0, -296], 	->a0
7000414a: 01812065     	setc.and	a0, t#1
7000414e: 00e4         	C.BSTART.STD	COND, 0x7000416a <.LBB4_225>
70004150: feb5b219     	ldi	[s0, -168], 	->a2
70004154: 00024f89     	lbu	[a2, zero], 	->t
70004158: 020c2075     	setc.andi	t#1, 32
7000415c: 1622         	C.BSTART.STD	DIRECT, 0x70004420 <__fwritex>
7000415e: 5196         	c.setret	0x7000416a, ->ra <.LBB4_225>
70004160: 00002f87     	addtpc	2, 	->t
70004164: 368c1115     	subi	t#1, 872, 	->a0
70004168: 1856         	c.movi	1, 	->a1

000000007000416a <.LBB4_225>:
7000416a: 0134         	C.BSTART.STD	COND, 0x70004190 <.LBB4_227>
7000416c: 01089685     	sub	s6, s5, 	->s2
70004170: feb5b119     	ldi	[s0, -168], 	->a0
70004174: 00014f89     	lbu	[a0, zero], 	->t
70004178: 020c2075     	setc.andi	t#1, 32
7000417c: 1522         	C.BSTART.STD	DIRECT, 0x70004420 <__fwritex>
7000417e: 5256         	c.setret	0x70004190, ->ra <.LBB4_227>
70004180: 6b1c         	c.zext.w	s1, ->t
70004182: 04c6cfc5     	cmp.lt	s2, s1.uw, 	->t
70004186: c19681f7     	csel	t#1, s2, t#2, 	->a1
7000418a: 1406         	c.movr	s5, 	->a0
7000418c: feb5b219     	ldi	[s0, -168], 	->a2

0000000070004190 <.LBB4_227>:
70004190: f794         	C.BSTART.STD	COND, 0x70004082 <.LBB4_209>
70004192: 00d61625     	subw	s1, s2, 	->s1
70004196: 00470715     	addi	s3, 4, 	->s3
7000419a: 00f76fc5     	cmp.ltu	s3, s4, 	->t
7000419e: ffd6         	c.movi	-1, 	->t
700041a0: 00cc4fc5     	cmp.lt	t#1, s1, 	->t
700041a4: 018d2065     	setc.and	t#3, t#1
700041a8: 0032         	C.BSTART.STD	DIRECT, 0x700041ae <.LBB4_228>

00000000700041aa <.LBB4_240>:
; .LBB4_240():
700041aa: fe02         	C.BSTART.STD	DIRECT, 0x7000416a <.LBB4_225>
700041ac: 8486         	c.movr	s7, 	->s5

00000000700041ae <.LBB4_228>:
; .LBB4_228():
700041ae: fffbfd11     	BSTART.STD	DIRECT, 0x700031a2 <pad>
700041b2: 5356         	c.setret	0x700041cc, ->ra <.LBB4_228+0x1e>
700041b4: feb5b999     	ldi	[s0, -168], 	->s8
700041b8: 14c6         	c.movr	s8, 	->a0
700041ba: 3006         	c.movr	zero, 	->a4
700041bc: 01260235     	addiw	s1, 18, 	->a2
700041c0: 03000195     	addi	zero, 48, 	->a1
700041c4: 01200295     	addi	zero, 18, 	->a3
700041c8: fec5b619     	ldi	[s0, -160], 	->s1
; ():
700041cc: 0114         	C.BSTART.STD	COND, 0x700041ee <.LBB4_231>
700041ce: 0009cf89     	lbu	[s8, zero], 	->t
700041d2: 020c2075     	setc.andi	t#1, 32
700041d6: fe95b119     	ldi	[s0, -184], 	->a0
700041da: fe35b699     	ldi	[s0, -232], 	->s2
700041de: 1212         	C.BSTART.STD	DIRECT, 0x70004420 <__fwritex>
700041e0: 51d6         	c.setret	0x700041ee, ->ra <.LBB4_231>
700041e2: f886         	c.movr	a0, 	->t
700041e4: fdd5b119     	ldi	[s0, -280], 	->a0
700041e8: 002c1185     	sub	t#1, a0, 	->a1
700041ec: 24c6         	c.movr	s8, 	->a2

00000000700041ee <.LBB4_231>:
700041ee: fffbed11     	BSTART.STD	DIRECT, 0x700031a2 <pad>
700041f2: 5316         	c.setret	0x7000420a, ->ra <.LBB4_231+0x1c>
700041f4: 00002f97     	lui	2, 	->t
700041f8: fea5bf99     	ldi	[s0, -176], 	->t
700041fc: 019c4305     	xor	t#1, t#2, 	->a4
70004200: 14c6         	c.movr	s8, 	->a0
70004202: 2306         	c.movr	s1, 	->a2
70004204: 2b46         	c.movr	s2, 	->a3
70004206: 02000195     	addi	zero, 32, 	->a1
7000420a: 0800         	C.BSTART.STD	
7000420c: 00d64fc5     	cmp.lt	s1, s2, 	->t
70004210: c0c68177     	csel	t#1, s2, s1, 	->a0

0000000070004214 <.LBB4_233>:
; .LBB4_233():
70004214: 01b4         	C.BSTART.STD	COND, 0x7000424a <.LBB4_239>
; ():
70004216: 00003f87     	addtpc	3, 	->t
7000421a: 802c3fa9     	ldi.u	[t#1, -2046], 	->t
7000421e: aada         	c.ldi	[s0, -88], ->t
70004220: c676         	c.setc.ne	t#2, t#1
70004222: 0800         	C.BSTART.STD	
70004224: 20059095     	subi	s0, 512, 	->sp
70004228: 81353041     	FRET.STK	[ra ~ s8], sp!, 512

000000007000422c <.LBB4_236>:
; .LBB4_236():
7000422c: 0800         	C.BSTART.STD	
7000422e: 1b06         	c.movr	s1, 	->a1

0000000070004230 <.LBB4_237>:
; .LBB4_237():
70004230: fffbdc91     	BSTART.STD	DIRECT, 0x700031a2 <pad>
70004234: 5216         	c.setret	0x70004244, ->ra <.LBB4_237+0x14>
70004236: 14c6         	c.movr	s8, 	->a0
70004238: 3006         	c.movr	zero, 	->a4
7000423a: 00918235     	addiw	a1, 9, 	->a2
7000423e: 03000195     	addi	zero, 48, 	->a1
70004242: 2a56         	c.movi	9, 	->a3
; ():
70004244: fd52         	C.BSTART.STD	DIRECT, 0x700041ee <.LBB4_231>
70004246: fec5b619     	ldi	[s0, -160], 	->s1

000000007000424a <.LBB4_239>:
; .LBB4_239():
7000424a: fff7e511     	BSTART.STD	DIRECT, 0x700021de <__stack_chk_fail_local>
7000424e: 5056         	c.setret	0x70004250, ->ra <.LBB4_239+0x6>
; ():
70004250: 0800         	C.BSTART.STD	
70004252: 0000         	C.BSTOP

0000000070004254 <__lockfile>:
; __lockfile():
70004254: 0800         	C.BSTART.STD	
70004256: 02316199     	lwui	[a0, 140], 	->a1
7000425a: 0840         	C.BSTART.AUX	
7000425c: 0000023b     	ssrget	0, 	->a2
70004260: 00d4         	C.BSTART.STD	COND, 0x7000427a <.LBB0_4>
70004262: fd626219     	lwui	[a2, -168], 	->a2
70004266: bfffff97     	lui	-262145, 	->t
7000426a: fffc0f95     	addi	t#1, 4095, 	->t
7000426e: 0181afa5     	andw	a1, t#1, 	->t
70004272: 024c1065     	setc.ne	t#1, a2.sw
70004276: 0062         	C.BSTART.STD	DIRECT, 0x70004282 <.LBB0_5>
70004278: 1006         	c.movr	zero, 	->a0

000000007000427a <.LBB0_4>:
; .LBB0_4():
7000427a: 0800         	C.BSTART.STD	
7000427c: 46222059     	swi	a2, [a0, 140]
70004280: 1056         	c.movi	1, 	->a0

0000000070004282 <.LBB0_5>:
; .LBB0_5():
70004282: 3800         	C.BSTART.STD	RET
70004284: 029c         	c.setc.tgt	ra
70004286: 0800         	C.BSTART.STD	

0000000070004288 <__unlockfile>:
; __unlockfile():
70004288: 40b58041     	FENTRY	[s0 ~ s0], sp!, 256
7000428c: 0800         	C.BSTART.STD	
7000428e: 0334         	C.BSTART.STD	COND, 0x700042f4 <.LBB1_7>
70004290: 02316f99     	lwui	[a0, 140], 	->t
70004294: 46202059     	swi	zero, [a0, 140]
70004298: 40000f97     	lui	262144, 	->t
7000429c: c668         	c.and	t#2, t#1, ->t
7000429e: 0626         	c.setc.eq	t#1, zero
700042a0: 0800         	C.BSTART.STD	
700042a2: 08c10415     	addi	a0, 140, 	->a6
700042a6: 08100495     	addi	zero, 129, 	->a7
700042aa: b056         	c.movi	1, 	->x2
700042ac: 06200595     	addi	zero, 98, 	->s0
700042b0: a206         	c.movr	a6, 	->x0
700042b2: 0840         	C.BSTART.AUX	
700042b4: 1506         	c.movr	x0, 	->a0
700042b6: 1a46         	c.movr	a7, 	->a1
700042b8: 2586         	c.movr	x2, 	->a2
700042ba: 2806         	c.movr	zero, 	->a3
700042bc: 3006         	c.movr	zero, 	->a4
700042be: 3806         	c.movr	zero, 	->a5
700042c0: aac6         	c.movr	s0, 	->x1
700042c2: 0010302b     	acrc 1
700042c6: 0800         	C.BSTART.STD	
700042c8: a086         	c.movr	a0, 	->x0
700042ca: 0154         	C.BSTART.STD	COND, 0x700042f4 <.LBB1_7>
700042cc: fdaa1075     	setc.nei	x0, -38
700042d0: 0800         	C.BSTART.STD	
700042d2: 4856         	c.movi	1, 	->a7
700042d4: 06200a15     	addi	zero, 98, 	->x0
700042d8: 0840         	C.BSTART.AUX	
700042da: 1206         	c.movr	a6, 	->a0
700042dc: 1a46         	c.movr	a7, 	->a1
700042de: 2246         	c.movr	a7, 	->a2
700042e0: 2806         	c.movr	zero, 	->a3
700042e2: 3006         	c.movr	zero, 	->a4
700042e4: 3806         	c.movr	zero, 	->a5
700042e6: ad06         	c.movr	x0, 	->x1
700042e8: 0010302b     	acrc 1
700042ec: 0800         	C.BSTART.STD	
700042ee: 4086         	c.movr	a0, 	->a6
700042f0: 40b5a041     	FRET.RA	[s0 ~ s0], sp!, 256

00000000700042f4 <.LBB1_7>:
; .LBB1_7():
700042f4: 40b5a041     	FRET.RA	[s0 ~ s0], sp!, 256
700042f8: 0800         	C.BSTART.STD	
700042fa: 0000         	C.BSTOP

00000000700042fc <__towrite>:
; __towrite():
700042fc: 0184         	C.BSTART.STD	COND, 0x7000432c <.LBB0_2>
700042fe: 02212f99     	lwi	[a0, 136], 	->t
70004302: 001c1f95     	subi	t#1, 1, 	->t
70004306: ce38         	c.or	t#1, t#2, ->t
70004308: 442c2059     	swi	t#1, [a0, 136]
7000430c: 00016189     	lwu	[a0, zero], 	->a1
70004310: 0081a075     	setc.andi	a1, 8
70004314: 0122         	C.BSTART.STD	DIRECT, 0x70004338 <.LBB0_3>
70004316: 1806         	c.movr	zero, 	->a1
70004318: 04203059     	sdi	zero, [a0, 16]
7000431c: 02203059     	sdi	zero, [a0, 8]
70004320: 589a         	c.ldi	[a0, 88], ->t
70004322: 38ba         	c.sdi	t#1, [a0, 56]
70004324: 28ba         	c.sdi	t#1, [a0, 40]
70004326: 609a         	c.ldi	[a0, 96], ->t
70004328: c648         	c.add	t#2, t#1, ->t
7000432a: 20ba         	c.sdi	t#1, [a0, 32]

000000007000432c <.LBB0_2>:
; .LBB0_2():
7000432c: 0800         	C.BSTART.STD	
7000432e: 1401bfe7     	bis	a1, 5, 1, 	->t
70004332: c0012049     	sw	t#1, [a0, zero<<2]
70004336: 1fd6         	c.movi	-1, 	->a1

0000000070004338 <.LBB0_3>:
; .LBB0_3():
70004338: 3800         	C.BSTART.STD	RET
7000433a: 10c6         	c.movr	a1, 	->a0
7000433c: 029c         	c.setc.tgt	ra
7000433e: 0800         	C.BSTART.STD	

0000000070004340 <__towrite_needs_stdio_exit>:
; __towrite_needs_stdio_exit():
70004340: 0022         	C.BSTART.STD	DIRECT, 0x70004344 <__stdio_exit_needed>
70004342: 0800         	C.BSTART.STD	

0000000070004344 <__stdio_exit_needed>:
; __stdio_exit_needed():
70004344: 40b50041     	FENTRY	[ra ~ s0], sp!, 256
70004348: 0800         	C.BSTART.STD	
7000434a: 0512         	C.BSTART.STD	DIRECT, 0x700043ec <__ofl_lock>
7000434c: 5056         	c.setret	0x7000434e, ->ra <__stdio_exit_needed+0xa>
; ():
7000434e: 00b4         	C.BSTART.STD	COND, 0x70004364 <.LBB0_5>
70004350: 00013589     	ld	[a0, zero], 	->s0
70004354: 02e6         	c.setc.eq	s0, zero

0000000070004356 <.LBB0_3>:
; .LBB0_3():
70004356: 01c2         	C.BSTART.STD	DIRECT, 0x7000438e <close_file>
70004358: 5096         	c.setret	0x7000435c, ->ra <.LBB0_3+0x6>
7000435a: 12c6         	c.movr	s0, 	->a0
; ():
7000435c: ffd4         	C.BSTART.STD	COND, 0x70004356 <.LBB0_3>
7000435e: 00e5b599     	ldi	[s0, 112], 	->s0
70004362: 02f6         	c.setc.ne	s0, zero

0000000070004364 <.LBB0_5>:
; .LBB0_5():
70004364: 0152         	C.BSTART.STD	DIRECT, 0x7000438e <close_file>
70004366: 5156         	c.setret	0x70004370, ->ra <.LBB0_5+0xc>
; ():
70004368: 00002f87     	addtpc	2, 	->t
7000436c: 6b8c3129     	ldi.u	[t#1, 1720], 	->a0
70004370: 00f2         	C.BSTART.STD	DIRECT, 0x7000438e <close_file>
70004372: 5156         	c.setret	0x7000437c, ->ra <.LBB0_5+0x18>
70004374: 00002f87     	addtpc	2, 	->t
70004378: 6acc3129     	ldi.u	[t#1, 1708], 	->a0
7000437c: 0800         	C.BSTART.STD	
7000437e: 00002f87     	addtpc	2, 	->t
70004382: 6a2c3129     	ldi.u	[t#1, 1698], 	->a0
70004386: 40b51041     	FEXIT	[ra ~ s0], sp!, 256
7000438a: 0022         	C.BSTART.STD	DIRECT, 0x7000438e <close_file>
7000438c: 0800         	C.BSTART.STD	

000000007000438e <close_file>:
; close_file():
7000438e: 40b50041     	FENTRY	[ra ~ s0], sp!, 256
70004392: 0800         	C.BSTART.STD	
70004394: 0274         	C.BSTART.STD	COND, 0x700043e2 <.LBB1_10>
70004396: 5886         	c.movr	a0, 	->s0
70004398: 02e6         	c.setc.eq	s0, zero
7000439a: 0084         	C.BSTART.STD	COND, 0x700043aa <.LBB1_4>
7000439c: 0235af99     	lwi	[s0, 140], 	->t
700043a0: 000c4075     	setc.lti	t#1, 0
700043a4: f582         	C.BSTART.STD	DIRECT, 0x70004254 <__lockfile>
700043a6: 5096         	c.setret	0x700043aa, ->ra <.LBB1_4>
700043a8: 12c6         	c.movr	s0, 	->a0

00000000700043aa <.LBB1_4>:
; ():
700043aa: 00b4         	C.BSTART.STD	COND, 0x700043c0 <.LBB1_6>
700043ac: 2ada         	c.ldi	[s0, 40], ->t
700043ae: 3ada         	c.ldi	[s0, 56], ->t
700043b0: c666         	c.setc.eq	t#2, t#1
700043b2: 3000         	C.BSTART.STD	ICALL
700043b4: 5196         	c.setret	0x700043c0, ->ra <.LBB1_6>
700043b6: 4ada         	c.ldi	[s0, 72], ->t
700043b8: 061c         	c.setc.tgt	t#1
700043ba: 12c6         	c.movr	s0, 	->a0
700043bc: 1806         	c.movr	zero, 	->a1
700043be: 2006         	c.movr	zero, 	->a2

00000000700043c0 <.LBB1_6>:
700043c0: 0114         	C.BSTART.STD	COND, 0x700043e2 <.LBB1_10>
700043c2: 0015b199     	ldi	[s0, 8], 	->a1
700043c6: 0025b219     	ldi	[s0, 16], 	->a2
700043ca: 20e6         	c.setc.eq	a1, a2
700043cc: 0800         	C.BSTART.STD	
700043ce: 12c6         	c.movr	s0, 	->a0
700043d0: 52da         	c.ldi	[s0, 80], ->t
700043d2: a606         	c.movr	t#1, 	->x0
700043d4: 00419185     	sub	a1, a2, 	->a1
700043d8: 2056         	c.movi	1, 	->a2
700043da: 40b51041     	FEXIT	[ra ~ s0], sp!, 256
700043de: 2800         	C.BSTART.STD	IND
700043e0: 051c         	c.setc.tgt	x0

00000000700043e2 <.LBB1_10>:
; .LBB1_10():
700043e2: 0800         	C.BSTART.STD	
700043e4: 40b53041     	FRET.STK	[ra ~ s0], sp!, 256
700043e8: 0800         	C.BSTART.STD	
700043ea: 0000         	C.BSTOP

00000000700043ec <__ofl_lock>:
; __ofl_lock():
700043ec: 40a50041     	FENTRY	[ra ~ ra], sp!, 256
700043f0: 0800         	C.BSTART.STD	
700043f2: 00061f91     	BSTART.STD	DIRECT, 0x70005c70 <__lock>
700043f6: 5156         	c.setret	0x70004400, ->ra <__ofl_lock+0x14>
; ():
700043f8: 00002f87     	addtpc	2, 	->t
700043fc: 630c0115     	addi	t#1, 1584, 	->a0
70004400: 0800         	C.BSTART.STD	
70004402: 00002f87     	addtpc	2, 	->t
70004406: 62ec0115     	addi	t#1, 1582, 	->a0
7000440a: 40a53041     	FRET.STK	[ra ~ ra], sp!, 256
7000440e: 0800         	C.BSTART.STD	

0000000070004410 <__ofl_unlock>:
; __ofl_unlock():
70004410: 00062411     	BSTART.STD	DIRECT, 0x70005ca0 <__unlock>
; ():
70004414: 00002f87     	addtpc	2, 	->t
70004418: 614c0115     	addi	t#1, 1556, 	->a0
7000441c: 0800         	C.BSTART.STD	
7000441e: 0000         	C.BSTOP

0000000070004420 <__fwritex>:
; __fwritex():
70004420: 41050041     	FENTRY	[ra ~ s5], sp!, 256
70004424: 0800         	C.BSTART.STD	
70004426: 0444         	C.BSTART.STD	COND, 0x700044ae <.LBB0_13>
70004428: 5906         	c.movr	a2, 	->s0
7000442a: 60c6         	c.movr	a1, 	->s1
7000442c: 6886         	c.movr	a0, 	->s2
7000442e: 0045b199     	ldi	[s0, 32], 	->a1
70004432: 00e6         	c.setc.eq	a1, zero

0000000070004434 <.LBB0_2>:
; .LBB0_2():
70004434: 0104         	C.BSTART.STD	COND, 0x70004454 <.LBB0_6>
70004436: 0055b119     	ldi	[s0, 40], 	->a0
7000443a: 10d8         	c.sub	a1, a0, ->t
7000443c: 00cc7065     	setc.geu	t#1, s1
70004440: 0800         	C.BSTART.STD	
70004442: 12c6         	c.movr	s0, 	->a0
70004444: 1b46         	c.movr	s2, 	->a1
70004446: 2306         	c.movr	s1, 	->a2
70004448: 4ada         	c.ldi	[s0, 72], ->t
7000444a: a606         	c.movr	t#1, 	->x0
7000444c: 41051041     	FEXIT	[ra ~ s5], sp!, 256
70004450: 2800         	C.BSTART.STD	IND
70004452: 051c         	c.setc.tgt	x0

0000000070004454 <.LBB0_6>:
; .LBB0_6():
70004454: 0344         	C.BSTART.STD	COND, 0x700044bc <.LBB0_16>
70004456: 0245af99     	lwi	[s0, 144], 	->t
7000445a: 000c4075     	setc.lti	t#1, 0
7000445e: 0800         	C.BSTART.STD	
70004460: 7806         	c.movr	zero, 	->s4
70004462: 00169195     	subi	s2, 1, 	->a1
70004466: 00168815     	addi	s2, 1, 	->s5

000000007000446a <.LBB0_8>:
; .LBB0_8():
7000446a: 02e4         	C.BSTART.STD	COND, 0x700044c6 <.LBB0_18>
7000446c: 7b26         	c.setc.eq	s1, s4
7000446e: ffe4         	C.BSTART.STD	COND, 0x7000446a <.LBB0_8>
70004470: 00364f89     	lbu	[s1, a1], 	->t
70004474: 00ac1075     	setc.nei	t#1, 10
70004478: 00119195     	subi	a1, 1, 	->a1
7000447c: 00178795     	addi	s4, 1, 	->s4
70004480: 00181815     	subi	s5, 1, 	->s5
70004484: 3000         	C.BSTART.STD	ICALL
70004486: 5256         	c.setret	0x70004498, ->ra <.LBB0_8+0x2e>
70004488: 4ada         	c.ldi	[s0, 72], ->t
7000448a: 061c         	c.setc.tgt	t#1
7000448c: 7b18         	c.sub	s1, s4, ->t
7000448e: 001c0715     	addi	t#1, 1, 	->s3
70004492: 12c6         	c.movr	s0, 	->a0
70004494: 1b46         	c.movr	s2, 	->a1
70004496: 2386         	c.movr	s3, 	->a2
; ():
70004498: 0244         	C.BSTART.STD	COND, 0x700044e0 <.LBB0_21>
7000449a: 00e16065     	setc.ltu	a0, s3
7000449e: 0162         	C.BSTART.STD	DIRECT, 0x700044ca <.LBB0_19>
700044a0: 00179f95     	subi	s4, 1, 	->t
700044a4: 00c80685     	add	s5, s1, 	->s2
700044a8: 6606         	c.movr	t#1, 	->s1
700044aa: 0055b119     	ldi	[s0, 40], 	->a0

00000000700044ae <.LBB0_13>:
; .LBB0_13():
700044ae: f272         	C.BSTART.STD	DIRECT, 0x700042fc <__towrite>
700044b0: 5096         	c.setret	0x700044b4, ->ra <.LBB0_13+0x6>
700044b2: 12c6         	c.movr	s0, 	->a0
; ():
700044b4: 0064         	C.BSTART.STD	COND, 0x700044c0 <.LBB0_17>
700044b6: 00a6         	c.setc.eq	a0, zero
700044b8: 0142         	C.BSTART.STD	DIRECT, 0x700044e0 <.LBB0_21>
700044ba: 1006         	c.movr	zero, 	->a0

00000000700044bc <.LBB0_16>:
; .LBB0_16():
700044bc: 0072         	C.BSTART.STD	DIRECT, 0x700044ca <.LBB0_19>
700044be: 7006         	c.movr	zero, 	->s3

00000000700044c0 <.LBB0_17>:
; .LBB0_17():
700044c0: fba2         	C.BSTART.STD	DIRECT, 0x70004434 <.LBB0_2>
700044c2: 0045b199     	ldi	[s0, 32], 	->a1

00000000700044c6 <.LBB0_18>:
; .LBB0_18():
700044c6: 0800         	C.BSTART.STD	
700044c8: 7006         	c.movr	zero, 	->s3

00000000700044ca <.LBB0_19>:
; .LBB0_19():
700044ca: 00058791     	BSTART.STD	DIRECT, 0x70005ae8 <memcpy>
700044ce: 50d6         	c.setret	0x700044d4, ->ra <.LBB0_19+0xa>
700044d0: 1b46         	c.movr	s2, 	->a1
700044d2: 2306         	c.movr	s1, 	->a2
; ():
700044d4: 0800         	C.BSTART.STD	
700044d6: 2ada         	c.ldi	[s0, 40], ->t
700044d8: 6608         	c.add	t#1, s1, ->t
700044da: 2afa         	c.sdi	t#1, [s0, 40]
700044dc: 00c70105     	add	s3, s1, 	->a0

00000000700044e0 <.LBB0_21>:
; .LBB0_21():
700044e0: 0800         	C.BSTART.STD	
700044e2: 41053041     	FRET.STK	[ra ~ s5], sp!, 256
700044e6: 0800         	C.BSTART.STD	

00000000700044e8 <fwrite_unlocked>:
; fwrite_unlocked():
700044e8: 41050041     	FENTRY	[ra ~ s5], sp!, 256
700044ec: 0800         	C.BSTART.STD	
700044ee: 0284         	C.BSTART.STD	COND, 0x7000453e <.LBB1_11>
700044f0: 7146         	c.movr	a3, 	->s3
700044f2: 5906         	c.movr	a2, 	->s0
700044f4: 60c6         	c.movr	a1, 	->s1
700044f6: 7886         	c.movr	a0, 	->s4
700044f8: 00c586c7     	mul	s0, s1, 	->s2
700044fc: 02372f99     	lwi	[s3, 140], 	->t
70004500: ffd6         	c.movi	-1, 	->t
70004502: 019c5065     	setc.ge	t#1, t#2
70004506: ea72         	C.BSTART.STD	DIRECT, 0x70004254 <__lockfile>
70004508: 5096         	c.setret	0x7000450c, ->ra <fwrite_unlocked+0x24>
7000450a: 1386         	c.movr	s3, 	->a0
; ():
7000450c: f8a2         	C.BSTART.STD	DIRECT, 0x70004420 <__fwritex>
7000450e: 5156         	c.setret	0x70004518, ->ra <fwrite_unlocked+0x30>
70004510: 8086         	c.movr	a0, 	->s5
70004512: 13c6         	c.movr	s4, 	->a0
70004514: 1b46         	c.movr	s2, 	->a1
70004516: 2386         	c.movr	s3, 	->a2
70004518: 0064         	C.BSTART.STD	COND, 0x70004524 <.LBB1_6>
7000451a: 0426         	c.setc.eq	s5, zero
7000451c: 7886         	c.movr	a0, 	->s4
7000451e: eb52         	C.BSTART.STD	DIRECT, 0x70004288 <__unlockfile>
70004520: 5096         	c.setret	0x70004524, ->ra <.LBB1_6>
70004522: 1386         	c.movr	s3, 	->a0

0000000070004524 <.LBB1_6>:
70004524: 0074         	C.BSTART.STD	COND, 0x70004532 <.LBB1_8>
70004526: 6bf6         	c.setc.ne	s4, s2
70004528: 0082         	C.BSTART.STD	DIRECT, 0x70004538 <.LBB1_9>
7000452a: 00060fd5     	cmp.eqi	s1, 0, 	->t
7000452e: c0b00177     	csel	t#1, zero, s0, 	->a0

0000000070004532 <.LBB1_8>:
; .LBB1_8():
70004532: 0800         	C.BSTART.STD	
70004534: 00c79157     	divu	s4, s1, 	->a0

0000000070004538 <.LBB1_9>:
; .LBB1_9():
70004538: 0800         	C.BSTART.STD	
7000453a: 41053041     	FRET.STK	[ra ~ s5], sp!, 256

000000007000453e <.LBB1_11>:
; .LBB1_11():
7000453e: f712         	C.BSTART.STD	DIRECT, 0x70004420 <__fwritex>
70004540: 5116         	c.setret	0x70004548, ->ra <.LBB1_11+0xa>
70004542: 13c6         	c.movr	s4, 	->a0
70004544: 1b46         	c.movr	s2, 	->a1
70004546: 2386         	c.movr	s3, 	->a2
; ():
70004548: fee2         	C.BSTART.STD	DIRECT, 0x70004524 <.LBB1_6>
7000454a: 7886         	c.movr	a0, 	->s4
7000454c: 0800         	C.BSTART.STD	
7000454e: 0000         	C.BSTOP

0000000070004550 <strerror_l>:
; strerror_l():
70004550: 0352         	C.BSTART.STD	DIRECT, 0x700045ba <__lctrans>
70004552: 08300f95     	addi	zero, 131, 	->t
70004556: 002c6fc5     	cmp.ltu	t#1, a0, 	->t
7000455a: c0200ff7     	csel	t#1, zero, a0, 	->t
; ():
7000455e: 00002f87     	addtpc	2, 	->t
70004562: 262c0f95     	addi	t#1, 610, 	->t
70004566: 0dac5f89     	lhu	[t#1, t#3.uw<<1], 	->t
7000456a: 00002f87     	addtpc	2, 	->t
7000456e: 552c1f95     	subi	t#1, 1362, 	->t
70004572: 01ac0105     	add	t#1, t#3, 	->a0
70004576: 0051b199     	ldi	[a1, 40], 	->a1
7000457a: 0800         	C.BSTART.STD	

000000007000457c <strerror>:
; strerror():
7000457c: 0840         	C.BSTART.AUX	
7000457e: 000001bb     	ssrget	0, 	->a1
70004582: 01c2         	C.BSTART.STD	DIRECT, 0x700045ba <__lctrans>
70004584: ffa1bf19     	ldi	[a1, -48], 	->u
; ():
70004588: 00002f87     	addtpc	2, 	->t
7000458c: 238c0f95     	addi	t#1, 568, 	->t
70004590: 08300f95     	addi	zero, 131, 	->t
70004594: 002c6fc5     	cmp.ltu	t#1, a0, 	->t
70004598: c0200ff7     	csel	t#1, zero, a0, 	->t
7000459c: 0d8ddf89     	lhu	[t#4, t#1.uw<<1], 	->t
700045a0: 00002f87     	addtpc	2, 	->t
700045a4: 588c1f95     	subi	t#1, 1416, 	->t
700045a8: 01ac0105     	add	t#1, t#3, 	->a0
700045ac: 005e3199     	ldi	[u#1, 40], 	->a1
700045b0: 0800         	C.BSTART.STD	
700045b2: 0000         	C.BSTOP

00000000700045b4 <dummy>:
; __lctrans_impl():
700045b4: 3800         	C.BSTART.STD	RET
700045b6: 029c         	c.setc.tgt	ra
700045b8: 0800         	C.BSTART.STD	

00000000700045ba <__lctrans>:
; __lctrans():
700045ba: ffd2         	C.BSTART.STD	DIRECT, 0x700045b4 <dummy>
700045bc: 0800         	C.BSTART.STD	

00000000700045be <__lctrans_cur>:
; __lctrans_cur():
700045be: 0840         	C.BSTART.AUX	
700045c0: 000001bb     	ssrget	0, 	->a1
700045c4: ff82         	C.BSTART.STD	DIRECT, 0x700045b4 <dummy>
700045c6: d0da         	c.ldi	[a1, -48], ->t
700045c8: 005c3199     	ldi	[t#1, 40], 	->a1
700045cc: 0800         	C.BSTART.STD	
700045ce: 0000         	C.BSTOP

00000000700045d0 <wctomb>:
; wctomb():
700045d0: 40a50041     	FENTRY	[ra ~ ra], sp!, 256
700045d4: 00a4         	C.BSTART.STD	COND, 0x700045e8 <.LBB0_4>
700045d6: 00a6         	c.setc.eq	a0, zero
700045d8: 00c2         	C.BSTART.STD	DIRECT, 0x700045f0 <wcrtomb>
700045da: 5096         	c.setret	0x700045de, ->ra <.LBB0_2>
700045dc: 2006         	c.movr	zero, 	->a2

00000000700045de <.LBB0_2>:
; .LBB0_2():
700045de: 0800         	C.BSTART.STD	
700045e0: 02203105     	or	zero, a0.sw, 	->a0
700045e4: 40a53041     	FRET.STK	[ra ~ ra], sp!, 256

00000000700045e8 <.LBB0_4>:
; .LBB0_4():
700045e8: ffb2         	C.BSTART.STD	DIRECT, 0x700045de <.LBB0_2>
700045ea: 1006         	c.movr	zero, 	->a0
700045ec: 0800         	C.BSTART.STD	
700045ee: 0000         	C.BSTOP

00000000700045f0 <wcrtomb>:
; wcrtomb():
700045f0: 40a50041     	FENTRY	[ra ~ ra], sp!, 256
700045f4: 0800         	C.BSTART.STD	
700045f6: 0844         	C.BSTART.STD	COND, 0x700046fe <.LBB0_18>
700045f8: 00a6         	c.setc.eq	a0, zero
700045fa: 2056         	c.movi	1, 	->a2
700045fc: 0084         	C.BSTART.STD	COND, 0x7000460c <.LBB0_4>
700045fe: 07f00f95     	addi	zero, 127, 	->t
70004602: 003c6065     	setc.ltu	t#1, a1
70004606: 07c2         	C.BSTART.STD	DIRECT, 0x700046fe <.LBB0_18>
70004608: 18010049     	sb	a1, [a0, zero]

000000007000460c <.LBB0_4>:
; .LBB0_4():
7000460c: 0840         	C.BSTART.AUX	
7000460e: 000002bb     	ssrget	0, 	->a3
70004612: 0184         	C.BSTART.STD	COND, 0x70004642 <.LBB0_8>
70004614: d15a         	c.ldi	[a3, -48], ->t
70004616: 000c3f89     	ld	[t#1, zero], 	->t
7000461a: 0626         	c.setc.eq	t#1, zero
7000461c: 01b4         	C.BSTART.STD	COND, 0x70004652 <.LBB0_10>
7000461e: 7ff00f95     	addi	zero, 2047, 	->t
70004622: 003c6065     	setc.ltu	t#1, a1
70004626: 06c2         	C.BSTART.STD	DIRECT, 0x700046fe <.LBB0_18>
70004628: 0061df95     	srli	a1, 6, 	->t
7000462c: 181c3fe7     	bis	t#1, 6, 2, 	->t
70004630: c0010049     	sb	t#1, [a0, zero]
70004634: 1b91afe7     	bic	a1, 6, 58, 	->t
70004638: 1c0c3fe7     	bis	t#1, 7, 1, 	->t
7000463c: 022c0059     	sbi	t#1, [a0, 1]
70004640: 2096         	c.movi	2, 	->a2

0000000070004642 <.LBB0_8>:
; .LBB0_8():
70004642: 0294         	C.BSTART.STD	COND, 0x70004694 <.LBB0_12>
70004644: 1d819fe7     	bxu	a1, 7, 25, 	->t
70004648: 1bfc1075     	setc.nei	t#1, 447
7000464c: 0592         	C.BSTART.STD	DIRECT, 0x700046fe <.LBB0_18>
7000464e: 18010049     	sb	a1, [a0, zero]

0000000070004652 <.LBB0_10>:
; .LBB0_10():
70004652: 02a4         	C.BSTART.STD	COND, 0x700046a6 <.LBB0_14>
70004654: 2d419fe7     	bxu	a1, 11, 21, 	->t
70004658: 01a00f95     	addi	zero, 26, 	->t
7000465c: 019c6fc5     	cmp.ltu	t#1, t#2, 	->t
70004660: 35219fe7     	bxu	a1, 13, 19, 	->t
70004664: 09ec         	c.cmp.nei	t#1, 7, ->t
70004666: 018d2065     	setc.and	t#3, t#1
7000466a: 04a2         	C.BSTART.STD	DIRECT, 0x700046fe <.LBB0_18>
7000466c: 68dc         	c.zext.w	a1, ->t
7000466e: 185c1fe7     	bxu	t#1, 6, 6, 	->t
70004672: 1c0c3fe7     	bis	t#1, 7, 1, 	->t
70004676: 31319fe7     	bxu	a1, 12, 20, 	->t
7000467a: 142c3fe7     	bis	t#1, 5, 3, 	->t
7000467e: c0010049     	sb	t#1, [a0, zero]
70004682: 022d0059     	sbi	t#3, [a0, 1]
70004686: 1b91afe7     	bic	a1, 6, 58, 	->t
7000468a: 1c0c3fe7     	bis	t#1, 7, 1, 	->t
7000468e: 042c0059     	sbi	t#1, [a0, 2]
70004692: 20d6         	c.movi	3, 	->a2

0000000070004694 <.LBB0_12>:
; .LBB0_12():
70004694: fff6a111     	BSTART.STD	DIRECT, 0x70002118 <__errno_location>
70004698: 5056         	c.setret	0x7000469a, ->ra <.LBB0_12+0x6>
; ():
7000469a: 0322         	C.BSTART.STD	DIRECT, 0x700046fe <.LBB0_18>
7000469c: 05400f95     	addi	zero, 84, 	->t
700046a0: c0012049     	sw	t#1, [a0, zero<<2]
700046a4: 27d6         	c.movi	-1, 	->a2

00000000700046a6 <.LBB0_14>:
; .LBB0_14():
700046a6: 0234         	C.BSTART.STD	COND, 0x700046ec <.LBB0_16>
700046a8: ffff0f97     	lui	-16, 	->t
700046ac: c0c8         	c.add	a1, t#1, ->t
700046ae: 50bc1fe7     	bxu	t#1, 20, 12, 	->t
700046b2: 0636         	c.setc.ne	t#1, zero
700046b4: 0252         	C.BSTART.STD	DIRECT, 0x700046fe <.LBB0_18>
700046b6: 81f1af67     	bic	a1, 32, 32, 	->u
700046ba: 305e1fe7     	bxu	u#1, 12, 6, 	->t
700046be: 1c0c3fe7     	bis	t#1, 7, 1, 	->t
700046c2: 48d19fe7     	bxu	a1, 18, 14, 	->t
700046c6: 103c3fe7     	bis	t#1, 4, 4, 	->t
700046ca: c0010049     	sb	t#1, [a0, zero]
700046ce: 022d0059     	sbi	t#3, [a0, 1]
700046d2: 185e1fe7     	bxu	u#1, 6, 6, 	->t
700046d6: 1c0c3fe7     	bis	t#1, 7, 1, 	->t
700046da: 042c0059     	sbi	t#1, [a0, 2]
700046de: 1b91afe7     	bic	a1, 6, 58, 	->t
700046e2: 1c0c3fe7     	bis	t#1, 7, 1, 	->t
700046e6: 062c0059     	sbi	t#1, [a0, 3]
700046ea: 2116         	c.movi	4, 	->a2

00000000700046ec <.LBB0_16>:
; .LBB0_16():
700046ec: fff68b11     	BSTART.STD	DIRECT, 0x70002118 <__errno_location>
700046f0: 5056         	c.setret	0x700046f2, ->ra <.LBB0_16+0x6>
; ():
700046f2: 0800         	C.BSTART.STD	
700046f4: 05400f95     	addi	zero, 84, 	->t
700046f8: c0012049     	sw	t#1, [a0, zero<<2]
700046fc: 27d6         	c.movi	-1, 	->a2

00000000700046fe <.LBB0_18>:
; .LBB0_18():
700046fe: 0800         	C.BSTART.STD	
70004700: 1106         	c.movr	a2, 	->a0
70004702: 40a53041     	FRET.STK	[ra ~ ra], sp!, 256
70004706: 0800         	C.BSTART.STD	

0000000070004708 <__extenddftf2>:
; __extenddftf2():
70004708: 0184         	C.BSTART.STD	COND, 0x70004738 <.LBB0_2>
7000470a: 1886         	c.movr	a0, 	->a1
7000470c: fc01a267     	bic	a1, 63, 1, 	->a2
70004710: ffd6         	c.movi	-1, 	->t
70004712: 034c7f95     	slli	t#1, 52, 	->t
70004716: c108         	c.add	a2, t#1, ->t
70004718: 035c5f95     	srli	t#1, 53, 	->t
7000471c: 3fe00f95     	addi	zero, 1022, 	->t
70004720: 019c6065     	setc.ltu	t#1, t#2
70004724: 0912         	C.BSTART.STD	DIRECT, 0x70004846 <.LBB0_7>
70004726: 03c27115     	slli	a2, 60, 	->a0
7000472a: 00425f95     	srli	a2, 4, 	->t
7000472e: fbd6         	c.movi	15, 	->t
70004730: 03ac7f95     	slli	t#1, 58, 	->t
70004734: 018d0205     	add	t#3, t#1, 	->a2

0000000070004738 <.LBB0_2>:
; .LBB0_2():
70004738: 00c4         	C.BSTART.STD	COND, 0x70004750 <.LBB0_4>
7000473a: 03425f95     	srli	a2, 52, 	->t
7000473e: 7ffc6075     	setc.ltui	t#1, 2047
70004742: 0822         	C.BSTART.STD	DIRECT, 0x70004846 <.LBB0_7>
70004744: 03c1f115     	slli	a1, 60, 	->a0
70004748: 0041df95     	srli	a1, 4, 	->t
7000474c: c0ec3267     	bis	t#1, 48, 15, 	->a2

0000000070004750 <.LBB0_4>:
; .LBB0_4():
70004750: 0784         	C.BSTART.STD	COND, 0x70004840 <.LBB0_6>
70004752: 0126         	c.setc.eq	a2, zero
70004754: 0792         	C.BSTART.STD	DIRECT, 0x70004846 <.LBB0_7>
70004756: 00125f95     	srli	a2, 1, 	->t
7000475a: c138         	c.or	a2, t#1, ->t
7000475c: 18ac         	c.srli	t#1, 2, ->t
7000475e: c678         	c.or	t#2, t#1, ->t
70004760: fec6         	c.movr	t#4, 	->t
70004762: 004cdf95     	srli	t#2, 4, 	->t
70004766: c6b8         	c.or	t#3, t#1, ->t
70004768: 1a2c         	c.srli	t#1, 8, ->t
7000476a: fec6         	c.movr	t#4, 	->t
7000476c: ceb8         	c.or	t#3, t#2, ->t
7000476e: 1c2c         	c.srli	t#1, 16, ->t
70004770: c678         	c.or	t#2, t#1, ->t
70004772: fec6         	c.movr	t#4, 	->t
70004774: 020cdf95     	srli	t#2, 32, 	->t
70004778: c6b8         	c.or	t#3, t#1, ->t
7000477a: fffc4f15     	xori	t#1, -1, 	->u
7000477e: 001e5f95     	srli	u#1, 1, 	->t
70004782: fec6         	c.movr	t#4, 	->t
70004784: 55555f97     	lui	349525, 	->t
70004788: 555c0f95     	addi	t#1, 1365, 	->t
7000478c: fec6         	c.movr	t#4, 	->t
7000478e: fec6         	c.movr	t#4, 	->t
70004790: 103e 2fcd 01ad       	hl.bfi	t#3, t#3, 4, 4, 	->t
70004796: c6a8         	c.and	t#3, t#1, ->t
70004798: 018e1f05     	sub	u#1, t#1, 	->u
7000479c: 002e5f15     	srli	u#1, 2, 	->u
700047a0: 33333f97     	lui	209715, 	->t
700047a4: fec6         	c.movr	t#4, 	->t
700047a6: 333c8f95     	addi	t#2, 819, 	->t
700047aa: 103e 2fcd 018c       	hl.bfi	t#1, t#1, 4, 4, 	->t
700047b0: c768         	c.and	u#2, t#1, ->t
700047b2: fec6         	c.movr	t#4, 	->t
700047b4: d728         	c.and	u#1, t#3, ->t
700047b6: c688         	c.add	t#3, t#1, ->t
700047b8: 192c         	c.srli	t#1, 4, ->t
700047ba: fec6         	c.movr	t#4, 	->t
700047bc: ce88         	c.add	t#3, t#2, ->t
700047be: 0f0f0f97     	lui	61680, 	->t
700047c2: f0fc0f95     	addi	t#1, 3855, 	->t
700047c6: fec6         	c.movr	t#4, 	->t
700047c8: fec6         	c.movr	t#4, 	->t
700047ca: 103e 2fcd 01ad       	hl.bfi	t#3, t#3, 4, 4, 	->t
700047d0: c668         	c.and	t#2, t#1, ->t
700047d2: fec6         	c.movr	t#4, 	->t
700047d4: 01010f97     	lui	4112, 	->t
700047d8: 101c0f95     	addi	t#1, 257, 	->t
700047dc: fec6         	c.movr	t#4, 	->t
700047de: fec6         	c.movr	t#4, 	->t
700047e0: 103e 2fcd 01ad       	hl.bfi	t#3, t#3, 4, 4, 	->t
700047e6: 018d0fc7     	mul	t#3, t#1, 	->t
700047ea: 038c5f95     	srli	t#1, 56, 	->t
700047ee: fec6         	c.movr	t#4, 	->t
700047f0: 031c8f95     	addi	t#2, 49, 	->t
700047f4: 01827f05     	sll	a2, t#1, 	->u
700047f8: 00fd1f15     	subi	t#3, 15, 	->u
700047fc: 01c27f05     	sll	a2, u#1, 	->u
70004800: fb96         	c.movi	14, 	->t
70004802: fec6         	c.movr	t#4, 	->t
70004804: fec6         	c.movr	t#4, 	->t
70004806: ce98         	c.sub	t#3, t#2, ->t
70004808: 018cdf85     	srl	t#2, t#1, 	->t
7000480c: fec6         	c.movr	t#4, 	->t
7000480e: 000ecfd5     	cmp.lti	u#2, 0, 	->t
70004812: c1cd0ff7     	csel	t#1, t#3, u#1, 	->t
70004816: 03feef95     	srai	u#2, 63, 	->t
7000481a: 01ec2105     	and	t#1, u#3, 	->a0
7000481e: fec6         	c.movr	t#4, 	->t
70004820: f856         	c.movi	1, 	->t
70004822: fec6         	c.movr	t#4, 	->t
70004824: 030cff95     	slli	t#2, 48, 	->t
70004828: 018ccf05     	xor	t#2, t#1, 	->u
7000482c: fec6         	c.movr	t#4, 	->t
7000482e: 00003f97     	lui	3, 	->t
70004832: c0cc0f95     	addi	t#1, 3084, 	->t
70004836: d618         	c.sub	t#1, t#3, ->t
70004838: 030c7f95     	slli	t#1, 48, 	->t
7000483c: 018e3205     	or	u#1, t#1, 	->a2

0000000070004840 <.LBB0_6>:
; .LBB0_6():
70004840: 0800         	C.BSTART.STD	
70004842: 1006         	c.movr	zero, 	->a0
70004844: 2006         	c.movr	zero, 	->a2

0000000070004846 <.LBB0_7>:
; .LBB0_7():
70004846: 3800         	C.BSTART.STD	RET
70004848: 03e1afe7     	bic	a1, 0, 63, 	->t
7000484c: 01823185     	or	a2, t#1, 	->a1
70004850: 029c         	c.setc.tgt	ra
70004852: 0800         	C.BSTART.STD	

0000000070004854 <__signbitl>:
; __signbitl():
70004854: 3800         	C.BSTART.STD	RET
70004856: 03f1d115     	srli	a1, 63, 	->a0
7000485a: 029c         	c.setc.tgt	ra
7000485c: 0800         	C.BSTART.STD	
7000485e: 0000         	C.BSTOP

0000000070004860 <__fpclassifyl>:
; __fpclassifyl():
70004860: 0800         	C.BSTART.STD	
70004862: c0f1a267     	bic	a1, 48, 16, 	->a2
70004866: c0e192e7     	bxu	a1, 48, 15, 	->a3
7000486a: 00f4         	C.BSTART.STD	COND, 0x70004888 <.LBB0_4>
7000486c: 00007f97     	lui	7, 	->t
70004870: ffec0f95     	addi	t#1, 4094, 	->t
70004874: 005c4065     	setc.lt	t#1, a3
70004878: 00c4         	C.BSTART.STD	COND, 0x70004890 <.LBB0_5>
7000487a: 0176         	c.setc.ne	a3, zero
7000487c: 1916         	c.movi	4, 	->a1
7000487e: 0092         	C.BSTART.STD	DIRECT, 0x70004890 <.LBB0_5>
70004880: 1138         	c.or	a2, a0, ->t
70004882: 002c         	c.cmp.eqi	t#1, 0, ->t
70004884: 003c4195     	xori	t#1, 3, 	->a1

0000000070004888 <.LBB0_4>:
; .LBB0_4():
70004888: 0800         	C.BSTART.STD	
7000488a: 1138         	c.or	a2, a0, ->t
7000488c: 000c01d5     	cmp.eqi	t#1, 0, 	->a1

0000000070004890 <.LBB0_5>:
; .LBB0_5():
70004890: 3800         	C.BSTART.STD	RET
70004892: 10c6         	c.movr	a1, 	->a0
70004894: 029c         	c.setc.tgt	ra
70004896: 0800         	C.BSTART.STD	

0000000070004898 <frexpl>:
; frexpl():
70004898: 40d50041     	FENTRY	[ra ~ s2], sp!, 256
7000489c: 0800         	C.BSTART.STD	
7000489e: 0800         	C.BSTART.STD	
700048a0: 5906         	c.movr	a2, 	->s0
700048a2: 68c6         	c.movr	a1, 	->s2
700048a4: 6086         	c.movr	a0, 	->s1
700048a6: 0306d115     	srli	s2, 48, 	->a0
700048aa: c0e691e7     	bxu	s2, 48, 15, 	->a1
700048ae: 03c4         	C.BSTART.STD	COND, 0x70004926 <.LBB0_12>
700048b0: 00007f97     	lui	7, 	->t
700048b4: ffec0f95     	addi	t#1, 4094, 	->t
700048b8: 003c4065     	setc.lt	t#1, a1
700048bc: 0154         	C.BSTART.STD	COND, 0x700048e6 <.LBB0_5>
700048be: 00e6         	c.setc.eq	a1, zero
700048c0: 0332         	C.BSTART.STD	DIRECT, 0x70004926 <.LBB0_12>
700048c2: 3f012fe7     	bic	a0, 15, 49, 	->t
700048c6: ffffcf97     	lui	-4, 	->t
700048ca: 160c         	c.addi	t#1, 2, ->t
700048cc: c688         	c.add	t#3, t#1, ->t
700048ce: c005a049     	sw	t#1, [s0, zero<<2]
700048d2: 00008f97     	lui	8, 	->t
700048d6: c0a8         	c.and	a0, t#1, ->t
700048d8: 030c7f95     	slli	t#1, 48, 	->t
700048dc: c0f6afe7     	bic	s2, 48, 16, 	->t
700048e0: c678         	c.or	t#2, t#1, ->t
700048e2: c4cc36e7     	bis	t#1, 49, 13, 	->s2

00000000700048e6 <.LBB0_5>:
; .LBB0_5():
700048e6: 0272         	C.BSTART.STD	DIRECT, 0x70004934 <__netf2>
700048e8: 5156         	c.setret	0x700048f2, ->ra <.LBB0_5+0xc>
700048ea: 1306         	c.movr	s1, 	->a0
700048ec: 1b46         	c.movr	s2, 	->a1
700048ee: 2006         	c.movr	zero, 	->a2
700048f0: 2806         	c.movr	zero, 	->a3
; ():
700048f2: 0154         	C.BSTART.STD	COND, 0x7000491c <.LBB0_10>
700048f4: 00a6         	c.setc.eq	a0, zero
700048f6: 0d92         	C.BSTART.STD	DIRECT, 0x70004aa8 <__multf3>
700048f8: 5216         	c.setret	0x70004908, ->ra <.LBB0_5+0x22>
700048fa: 1306         	c.movr	s1, 	->a0
700048fc: 1b46         	c.movr	s2, 	->a1
700048fe: 2006         	c.movr	zero, 	->a2
70004900: 04077f97     	lui	16503, 	->t
70004904: 024c7295     	slli	t#1, 36, 	->a3
70004908: fc82         	C.BSTART.STD	DIRECT, 0x70004898 <frexpl>
7000490a: 5096         	c.setret	0x7000490e, ->ra <.LBB0_5+0x28>
7000490c: 22c6         	c.movr	s0, 	->a2
7000490e: 0092         	C.BSTART.STD	DIRECT, 0x70004920 <.LBB0_11>
70004910: 6086         	c.movr	a0, 	->s1
70004912: 68c6         	c.movr	a1, 	->s2
70004914: 0005af89     	lw	[s0, zero], 	->t
70004918: 078c1115     	subi	t#1, 120, 	->a0

000000007000491c <.LBB0_10>:
; .LBB0_10():
7000491c: 0800         	C.BSTART.STD	
7000491e: 1006         	c.movr	zero, 	->a0

0000000070004920 <.LBB0_11>:
; .LBB0_11():
70004920: 0800         	C.BSTART.STD	
70004922: 1005a049     	sw	a0, [s0, zero<<2]

0000000070004926 <.LBB0_12>:
; .LBB0_12():
70004926: 0800         	C.BSTART.STD	
70004928: 1306         	c.movr	s1, 	->a0
7000492a: 1b46         	c.movr	s2, 	->a1
7000492c: 40d53041     	FRET.STK	[ra ~ s2], sp!, 256
70004930: 0800         	C.BSTART.STD	
70004932: 0000         	C.BSTOP

0000000070004934 <__netf2>:
; __netf2():
70004934: 04b4         	C.BSTART.STD	COND, 0x700049ca <.LBB0_8>
70004936: 00011f55     	cmp.nei	a0, 0, 	->u
7000493a: fc01a3e7     	bic	a1, 63, 1, 	->a5
7000493e: fc02a467     	bic	a3, 63, 1, 	->a6
70004942: 07ffff97     	lui	32767, 	->t
70004946: 024c7f15     	slli	t#1, 36, 	->u
7000494a: 01c38fc5     	cmp.eq	a5, u#1, 	->t
7000494e: 007e6fc5     	cmp.ltu	u#1, a5, 	->t
70004952: c98e8f77     	csel	t#2, u#2, t#1, 	->u
70004956: 01d40fc5     	cmp.eq	a6, u#2, 	->t
7000495a: 008eefc5     	cmp.ltu	u#2, a6, 	->t
7000495e: 00021fd5     	cmp.nei	a2, 0, 	->t
70004962: d19c0ff7     	csel	t#3, t#1, t#2, 	->t
70004966: 018e3065     	setc.or	u#1, t#1
7000496a: 3056         	c.movi	1, 	->a4
7000496c: 01b4         	C.BSTART.STD	COND, 0x700049a2 <.LBB0_5>
7000496e: 1138         	c.or	a2, a0, ->t
70004970: 3a38         	c.or	a6, a5, ->t
70004972: c678         	c.or	t#2, t#1, ->t
70004974: 0626         	c.setc.eq	t#1, zero
70004976: 0184         	C.BSTART.STD	COND, 0x700049a6 <.LBB0_6>
70004978: 1968         	c.and	a3, a1, ->t
7000497a: 000c4075     	setc.lti	t#1, 0
7000497e: 0264         	C.BSTART.STD	COND, 0x700049ca <.LBB0_8>
70004980: 00416fc5     	cmp.ltu	a0, a2, 	->t
70004984: 00518fc5     	cmp.eq	a1, a3, 	->t
70004988: 0051cfc5     	cmp.lt	a1, a3, 	->t
7000498c: c98d0ff7     	csel	t#2, t#3, t#1, 	->t
70004990: 0636         	c.setc.ne	t#1, zero
70004992: 37d6         	c.movi	-1, 	->a4
70004994: 01b2         	C.BSTART.STD	DIRECT, 0x700049ca <.LBB0_8>
70004996: 00414f85     	xor	a0, a2, 	->t
7000499a: 0051cf85     	xor	a1, a3, 	->t
7000499e: 018cb345     	cmp.or	t#2, t#1, 	->a4

00000000700049a2 <.LBB0_5>:
; .LBB0_5():
700049a2: 0142         	C.BSTART.STD	DIRECT, 0x700049ca <.LBB0_8>
700049a4: 3006         	c.movr	zero, 	->a4

00000000700049a6 <.LBB0_6>:
; .LBB0_6():
700049a6: 0124         	C.BSTART.STD	COND, 0x700049ca <.LBB0_8>
700049a8: 00226fc5     	cmp.ltu	a2, a0, 	->t
700049ac: 00518fc5     	cmp.eq	a1, a3, 	->t
700049b0: 0032cfc5     	cmp.lt	a3, a1, 	->t
700049b4: c98d0ff7     	csel	t#2, t#3, t#1, 	->t
700049b8: 0636         	c.setc.ne	t#1, zero
700049ba: 37d6         	c.movi	-1, 	->a4
700049bc: 0800         	C.BSTART.STD	
700049be: 00414f85     	xor	a0, a2, 	->t
700049c2: 0051cf85     	xor	a1, a3, 	->t
700049c6: 018cb345     	cmp.or	t#2, t#1, 	->a4

00000000700049ca <.LBB0_8>:
; .LBB0_8():
700049ca: 3800         	C.BSTART.STD	RET
700049cc: 1186         	c.movr	a4, 	->a0
700049ce: 029c         	c.setc.tgt	ra
700049d0: 0800         	C.BSTART.STD	

00000000700049d2 <__gttf2>:
; __gttf2():
700049d2: 0494         	C.BSTART.STD	COND, 0x70004a64 <.LBB1_8>
700049d4: 00011f55     	cmp.nei	a0, 0, 	->u
700049d8: fc01a3e7     	bic	a1, 63, 1, 	->a5
700049dc: fc02a467     	bic	a3, 63, 1, 	->a6
700049e0: 07ffff97     	lui	32767, 	->t
700049e4: 024c7f15     	slli	t#1, 36, 	->u
700049e8: 01c38fc5     	cmp.eq	a5, u#1, 	->t
700049ec: 007e6fc5     	cmp.ltu	u#1, a5, 	->t
700049f0: c98e8f77     	csel	t#2, u#2, t#1, 	->u
700049f4: 01d40fc5     	cmp.eq	a6, u#2, 	->t
700049f8: 008eefc5     	cmp.ltu	u#2, a6, 	->t
700049fc: 00021fd5     	cmp.nei	a2, 0, 	->t
70004a00: d19c0ff7     	csel	t#3, t#1, t#2, 	->t
70004a04: 018e3065     	setc.or	u#1, t#1
70004a08: 37d6         	c.movi	-1, 	->a4
70004a0a: 01a4         	C.BSTART.STD	COND, 0x70004a3e <.LBB1_5>
70004a0c: 1138         	c.or	a2, a0, ->t
70004a0e: 3a38         	c.or	a6, a5, ->t
70004a10: c678         	c.or	t#2, t#1, ->t
70004a12: 0626         	c.setc.eq	t#1, zero
70004a14: 0174         	C.BSTART.STD	COND, 0x70004a42 <.LBB1_6>
70004a16: 1968         	c.and	a3, a1, ->t
70004a18: 000c4075     	setc.lti	t#1, 0
70004a1c: 0244         	C.BSTART.STD	COND, 0x70004a64 <.LBB1_8>
70004a1e: 00416fc5     	cmp.ltu	a0, a2, 	->t
70004a22: 00518fc5     	cmp.eq	a1, a3, 	->t
70004a26: 0051cfc5     	cmp.lt	a1, a3, 	->t
70004a2a: c98d0ff7     	csel	t#2, t#3, t#1, 	->t
70004a2e: 0636         	c.setc.ne	t#1, zero
70004a30: 01a2         	C.BSTART.STD	DIRECT, 0x70004a64 <.LBB1_8>
70004a32: 00414f85     	xor	a0, a2, 	->t
70004a36: 0051cf85     	xor	a1, a3, 	->t
70004a3a: 018cb345     	cmp.or	t#2, t#1, 	->a4

0000000070004a3e <.LBB1_5>:
; .LBB1_5():
70004a3e: 0132         	C.BSTART.STD	DIRECT, 0x70004a64 <.LBB1_8>
70004a40: 3006         	c.movr	zero, 	->a4

0000000070004a42 <.LBB1_6>:
; .LBB1_6():
70004a42: 0114         	C.BSTART.STD	COND, 0x70004a64 <.LBB1_8>
70004a44: 00226fc5     	cmp.ltu	a2, a0, 	->t
70004a48: 00518fc5     	cmp.eq	a1, a3, 	->t
70004a4c: 0032cfc5     	cmp.lt	a3, a1, 	->t
70004a50: c98d0ff7     	csel	t#2, t#3, t#1, 	->t
70004a54: 0636         	c.setc.ne	t#1, zero
70004a56: 0800         	C.BSTART.STD	
70004a58: 00414f85     	xor	a0, a2, 	->t
70004a5c: 0051cf85     	xor	a1, a3, 	->t
70004a60: 018cb345     	cmp.or	t#2, t#1, 	->a4

0000000070004a64 <.LBB1_8>:
; .LBB1_8():
70004a64: 3800         	C.BSTART.STD	RET
70004a66: 1186         	c.movr	a4, 	->a0
70004a68: 029c         	c.setc.tgt	ra
70004a6a: 0800         	C.BSTART.STD	

0000000070004a6c <__unordtf2>:
; __unordtf2():
70004a6c: 3800         	C.BSTART.STD	RET
70004a6e: 00011f55     	cmp.nei	a0, 0, 	->u
70004a72: fc01af67     	bic	a1, 63, 1, 	->u
70004a76: fc02af67     	bic	a3, 63, 1, 	->u
70004a7a: 07ffff97     	lui	32767, 	->t
70004a7e: 024c7f95     	slli	t#1, 36, 	->t
70004a82: 018e8fc5     	cmp.eq	u#2, t#1, 	->t
70004a86: 01dcefc5     	cmp.ltu	t#2, u#2, 	->t
70004a8a: c98f0f77     	csel	t#2, u#3, t#1, 	->u
70004a8e: 01ae8fc5     	cmp.eq	u#2, t#3, 	->t
70004a92: 01ddefc5     	cmp.ltu	t#4, u#2, 	->t
70004a96: 00021fd5     	cmp.nei	a2, 0, 	->t
70004a9a: d19c0ff7     	csel	t#3, t#1, t#2, 	->t
70004a9e: 018e3105     	or	u#1, t#1, 	->a0
70004aa2: 029c         	c.setc.tgt	ra
70004aa4: 0800         	C.BSTART.STD	
70004aa6: 0000         	C.BSTOP

0000000070004aa8 <__multf3>:
; __multf3():
70004aa8: 40c58041     	FENTRY	[s0 ~ s1], sp!, 256
70004aac: 0800         	C.BSTART.STD	
70004aae: 02f4         	C.BSTART.STD	COND, 0x70004b0c <.LBB0_4>
70004ab0: 30c6         	c.movr	a1, 	->a4
70004ab2: c0e313e7     	bxu	a4, 48, 15, 	->a5
70004ab6: c0e29467     	bxu	a3, 48, 15, 	->a6
70004aba: 0062cf85     	xor	a3, a4, 	->t
70004abe: 03ec21e7     	bic	t#1, 0, 63, 	->a1
70004ac2: c0f324e7     	bic	a4, 48, 16, 	->a7
70004ac6: c0f2aae7     	bic	a3, 48, 16, 	->x1
70004aca: ffff8a17     	lui	-8, 	->x0
70004ace: 0d0c         	c.addi	x0, 1, ->t
70004ad0: c1c8         	c.add	a5, t#1, ->t
70004ad2: 150c         	c.addi	x0, 2, ->t
70004ad4: 018cefc5     	cmp.ltu	t#2, t#1, 	->t
70004ad8: da08         	c.add	a6, t#4, ->t
70004ada: 01ac6fc5     	cmp.ltu	t#1, t#3, 	->t
70004ade: c6b8         	c.or	t#3, t#1, ->t
70004ae0: 0626         	c.setc.eq	t#1, zero
70004ae2: 80f31b67     	bxu	a4, 32, 16, 	->x2
70004ae6: 1564         	C.BSTART.STD	COND, 0x70004d92 <.LBB0_12>
70004ae8: fc0325e7     	bic	a4, 63, 1, 	->s0
70004aec: 07ffff97     	lui	32767, 	->t
70004af0: 024c7615     	slli	t#1, 36, 	->s1
70004af4: 00c58fc5     	cmp.eq	s0, s1, 	->t
70004af8: 00c5efc5     	cmp.ltu	s0, s1, 	->t
70004afc: 00010fd5     	cmp.eqi	a0, 0, 	->t
70004b00: d19c0ff7     	csel	t#3, t#1, t#2, 	->t
70004b04: 0636         	c.setc.ne	t#1, zero
70004b06: 2b72         	C.BSTART.STD	DIRECT, 0x70005074 <.LBB0_35>
70004b08: bc0331e7     	bis	a4, 47, 1, 	->a1

0000000070004b0c <.LBB0_4>:
; .LBB0_4():
70004b0c: 0800         	C.BSTART.STD	
70004b0e: 2806         	c.movr	zero, 	->a3

0000000070004b10 <.LBB0_5>:
; .LBB0_5():
70004b10: 1294         	C.BSTART.STD	COND, 0x70004d62 <.LBB0_7>
70004b12: 03125f95     	srli	a2, 49, 	->t
70004b16: 795c3f05     	or	t#1, x1<<15, 	->u
70004b1a: 020e5f95     	srli	u#1, 32, 	->t
70004b1e: 7c0c3f67     	bis	t#1, 31, 1, 	->u
70004b22: 400b3f67     	bis	x2, 16, 1, 	->u
70004b26: 01ce8fc7     	mul	u#2, u#1, 	->t
70004b2a: 3a1c3059     	sdi	t#1, [sp, 232]
70004b2e: 81ff2f67     	bic	u#3, 32, 32, 	->u
70004b32: 01de0fc7     	mul	u#1, u#2, 	->t
70004b36: 45f21fe7     	bxu	a2, 17, 32, 	->t
70004b3a: 2e1c3059     	sdi	t#1, [sp, 184]
70004b3e: 01dc0fc7     	mul	t#1, u#2, 	->t
70004b42: 221c3059     	sdi	t#1, [sp, 136]
70004b46: 6d1c         	c.zext.w	x0, ->t
70004b48: fec6         	c.movr	t#4, 	->t
70004b4a: 784caf85     	and	t#2, a2<<15, 	->t
70004b4e: 787a         	c.sdi	t#1, [sp, 120]
70004b50: 01dc0f47     	mul	t#1, u#2, 	->u
70004b54: 6a5c         	c.zext.w	a7, ->t
70004b56: 018f8fc7     	mul	u#4, t#1, 	->t
70004b5a: fec6         	c.movr	t#4, 	->t
70004b5c: ce08         	c.add	t#1, t#2, ->t
70004b5e: 341c3059     	sdi	t#1, [sp, 208]
70004b62: fec6         	c.movr	t#4, 	->t
70004b64: 01acefc5     	cmp.ltu	t#2, t#3, 	->t
70004b68: 020c7f95     	slli	t#1, 32, 	->t
70004b6c: 361c3059     	sdi	t#1, [sp, 216]
70004b70: 01ae8fc7     	mul	u#2, t#3, 	->t
70004b74: 381c3059     	sdi	t#1, [sp, 224]
70004b78: fec6         	c.movr	t#4, 	->t
70004b7a: 0170bf99     	ldi	[sp, 184], 	->t
70004b7e: 019c0fc7     	mul	t#1, t#2, 	->t
70004b82: c708         	c.add	u#1, t#1, ->t
70004b84: 687a         	c.sdi	t#1, [sp, 104]
70004b86: f7c6         	c.movr	u#4, 	->u
70004b88: 01dc6f45     	cmp.ltu	t#1, u#2, 	->u
70004b8c: fec6         	c.movr	t#4, 	->t
70004b8e: 785a         	c.ldi	[sp, 120], ->t
70004b90: 019c0fc7     	mul	t#1, t#2, 	->t
70004b94: 487a         	c.sdi	t#1, [sp, 72]
70004b96: 02015f95     	srli	a0, 32, 	->t
70004b9a: 018e8fc7     	mul	u#2, t#1, 	->t
70004b9e: fec6         	c.movr	t#4, 	->t
70004ba0: 0110bf99     	ldi	[sp, 136], 	->t
70004ba4: fec6         	c.movr	t#4, 	->t
70004ba6: fec6         	c.movr	t#4, 	->t
70004ba8: fec6         	c.movr	t#4, 	->t
70004baa: de48         	c.add	t#2, t#4, ->t
70004bac: 301c3059     	sdi	t#1, [sp, 192]
70004bb0: fec6         	c.movr	t#4, 	->t
70004bb2: 01bcefc5     	cmp.ltu	t#2, t#4, 	->t
70004bb6: 321c3059     	sdi	t#1, [sp, 200]
70004bba: fec6         	c.movr	t#4, 	->t
70004bbc: 01af8fc7     	mul	u#4, t#3, 	->t
70004bc0: 261c3059     	sdi	t#1, [sp, 152]
70004bc4: fec6         	c.movr	t#4, 	->t
70004bc6: 0170bf99     	ldi	[sp, 184], 	->t
70004bca: fec6         	c.movr	t#4, 	->t
70004bcc: 01ac8fc7     	mul	t#2, t#3, 	->t
70004bd0: fec6         	c.movr	t#4, 	->t
70004bd2: 485a         	c.ldi	[sp, 72], ->t
70004bd4: fec6         	c.movr	t#4, 	->t
70004bd6: de48         	c.add	t#2, t#4, ->t
70004bd8: fec6         	c.movr	t#4, 	->t
70004bda: 01bcefc5     	cmp.ltu	t#2, t#4, 	->t
70004bde: 587a         	c.sdi	t#1, [sp, 88]
70004be0: 019d8fc7     	mul	t#4, t#2, 	->t
70004be4: 607a         	c.sdi	t#1, [sp, 96]
70004be6: fec6         	c.movr	t#4, 	->t
70004be8: 689c         	c.zext.w	a0, ->t
70004bea: 018e8fc7     	mul	u#2, t#1, 	->t
70004bee: 685a         	c.ldi	[sp, 104], ->t
70004bf0: f7c6         	c.movr	u#4, 	->u
70004bf2: 019c0f05     	add	t#1, t#2, 	->u
70004bf6: fec6         	c.movr	t#4, 	->t
70004bf8: fec6         	c.movr	t#4, 	->t
70004bfa: 01ae6fc5     	cmp.ltu	u#1, t#3, 	->t
70004bfe: 018f0f05     	add	u#3, t#1, 	->u
70004c02: 019f0fc7     	mul	u#3, t#2, 	->t
70004c06: fec6         	c.movr	t#4, 	->t
70004c08: fec6         	c.movr	t#4, 	->t
70004c0a: d648         	c.add	t#2, t#3, ->t
70004c0c: 01ac6fc5     	cmp.ltu	t#1, t#3, 	->t
70004c10: 585a         	c.ldi	[sp, 88], ->t
70004c12: fec6         	c.movr	t#4, 	->t
70004c14: fec6         	c.movr	t#4, 	->t
70004c16: de88         	c.add	t#3, t#4, ->t
70004c18: 2c1c3059     	sdi	t#1, [sp, 176]
70004c1c: 0170bf99     	ldi	[sp, 184], 	->t
70004c20: fec6         	c.movr	t#4, 	->t
70004c22: fec6         	c.movr	t#4, 	->t
70004c24: 019d0fc7     	mul	t#3, t#2, 	->t
70004c28: 605a         	c.ldi	[sp, 96], ->t
70004c2a: fec6         	c.movr	t#4, 	->t
70004c2c: fec6         	c.movr	t#4, 	->t
70004c2e: de88         	c.add	t#3, t#4, ->t
70004c30: 01bc6fc5     	cmp.ltu	t#1, t#4, 	->t
70004c34: 020c7f15     	slli	t#1, 32, 	->u
70004c38: fec6         	c.movr	t#4, 	->t
70004c3a: fec6         	c.movr	t#4, 	->t
70004c3c: fec6         	c.movr	t#4, 	->t
70004c3e: 785a         	c.ldi	[sp, 120], ->t
70004c40: 01bc0fc7     	mul	t#1, t#4, 	->t
70004c44: 507a         	c.sdi	t#1, [sp, 80]
70004c46: fec6         	c.movr	t#4, 	->t
70004c48: fec6         	c.movr	t#4, 	->t
70004c4a: 0130bf99     	ldi	[sp, 152], 	->t
70004c4e: c788         	c.add	u#3, t#1, ->t
70004c50: fec6         	c.movr	t#4, 	->t
70004c52: fec6         	c.movr	t#4, 	->t
70004c54: 01ed6fc5     	cmp.ltu	t#3, u#3, 	->t
70004c58: fec6         	c.movr	t#4, 	->t
70004c5a: fec6         	c.movr	t#4, 	->t
70004c5c: fec6         	c.movr	t#4, 	->t
70004c5e: df48         	c.add	u#2, t#4, ->t
70004c60: 020c7f15     	slli	t#1, 32, 	->u
70004c64: fec6         	c.movr	t#4, 	->t
70004c66: fec6         	c.movr	t#4, 	->t
70004c68: fec6         	c.movr	t#4, 	->t
70004c6a: 020c5f95     	srli	t#1, 32, 	->t
70004c6e: fec6         	c.movr	t#4, 	->t
70004c70: fec6         	c.movr	t#4, 	->t
70004c72: fec6         	c.movr	t#4, 	->t
70004c74: eef8         	c.or	t#4, u#2, ->t
70004c76: 018d0f05     	add	t#3, t#1, 	->u
70004c7a: 01ae6f45     	cmp.ltu	u#1, t#3, 	->u
70004c7e: fec6         	c.movr	t#4, 	->t
70004c80: 020d7f95     	slli	t#3, 32, 	->t
70004c84: 505a         	c.ldi	[sp, 80], ->t
70004c86: 018c8305     	add	t#2, t#1, 	->a4
70004c8a: 01936fc5     	cmp.ltu	a4, t#2, 	->t
70004c8e: fec6         	c.movr	t#4, 	->t
70004c90: 020c5f95     	srli	t#1, 32, 	->t
70004c94: f638         	c.or	t#1, u#3, ->t
70004c96: 281c3059     	sdi	t#1, [sp, 160]
70004c9a: fec6         	c.movr	t#4, 	->t
70004c9c: 020dff95     	slli	t#4, 32, 	->t
70004ca0: c748         	c.add	u#2, t#1, ->t
70004ca2: 01dc6fc5     	cmp.ltu	t#1, u#2, 	->t
70004ca6: fec6         	c.movr	t#4, 	->t
70004ca8: cf08         	c.add	u#1, t#2, ->t
70004caa: 01bc8205     	add	t#2, t#4, 	->a2
70004cae: 01a0bf99     	ldi	[sp, 208], 	->t
70004cb2: 020c5f95     	srli	t#1, 32, 	->t
70004cb6: 01b0bf99     	ldi	[sp, 216], 	->t
70004cba: 019c3f05     	or	t#1, t#2, 	->u
70004cbe: 020d7f15     	slli	t#3, 32, 	->u
70004cc2: fec6         	c.movr	t#4, 	->t
70004cc4: 01c0bf99     	ldi	[sp, 224], 	->t
70004cc8: 0180bf99     	ldi	[sp, 192], 	->t
70004ccc: 019c0f05     	add	t#1, t#2, 	->u
70004cd0: 018e6fc5     	cmp.ltu	u#1, t#1, 	->t
70004cd4: fec6         	c.movr	t#4, 	->t
70004cd6: 0190bf99     	ldi	[sp, 200], 	->t
70004cda: d608         	c.add	t#1, t#3, ->t
70004cdc: 01d0bf99     	ldi	[sp, 232], 	->t
70004ce0: fec6         	c.movr	t#4, 	->t
70004ce2: ce88         	c.add	t#3, t#2, ->t
70004ce4: 0160bf99     	ldi	[sp, 176], 	->t
70004ce8: c708         	c.add	u#1, t#1, ->t
70004cea: fec6         	c.movr	t#4, 	->t
70004cec: fec6         	c.movr	t#4, 	->t
70004cee: 01cd6fc5     	cmp.ltu	t#3, u#1, 	->t
70004cf2: fec6         	c.movr	t#4, 	->t
70004cf4: fec6         	c.movr	t#4, 	->t
70004cf6: d6c8         	c.add	t#4, t#3, ->t
70004cf8: f608         	c.add	t#1, u#3, ->t
70004cfa: fec6         	c.movr	t#4, 	->t
70004cfc: fec6         	c.movr	t#4, 	->t
70004cfe: ee48         	c.add	t#2, u#2, ->t
70004d00: fec6         	c.movr	t#4, 	->t
70004d02: 01bcefc5     	cmp.ltu	t#2, t#4, 	->t
70004d06: fec6         	c.movr	t#4, 	->t
70004d08: fec6         	c.movr	t#4, 	->t
70004d0a: d6c8         	c.add	t#4, t#3, ->t
70004d0c: 0140bf99     	ldi	[sp, 160], 	->t
70004d10: fec6         	c.movr	t#4, 	->t
70004d12: fec6         	c.movr	t#4, 	->t
70004d14: fec6         	c.movr	t#4, 	->t
70004d16: de48         	c.add	t#2, t#4, ->t
70004d18: fec6         	c.movr	t#4, 	->t
70004d1a: 01bcefc5     	cmp.ltu	t#2, t#4, 	->t
70004d1e: c6c8         	c.add	t#4, t#1, ->t
70004d20: 01ad8105     	add	t#4, t#3, 	->a0
70004d24: 01b16fc5     	cmp.ltu	a0, t#4, 	->t
70004d28: 018c8485     	add	t#2, t#1, 	->a7
70004d2c: 41c8         	c.add	a5, a6, ->t
70004d2e: 2e08         	c.add	t#1, a3, ->t
70004d30: ffffcf97     	lui	-4, 	->t
70004d34: 0e0c         	c.addi	t#1, 1, ->t
70004d36: 018d0285     	add	t#3, t#1, 	->a3
70004d3a: f856         	c.movi	1, 	->t
70004d3c: 030c7f95     	slli	t#1, 48, 	->t
70004d40: 0184a065     	setc.and	a7, t#1
70004d44: 0122         	C.BSTART.STD	DIRECT, 0x70004d68 <.LBB0_8>
70004d46: 03f15f95     	srli	a0, 63, 	->t
70004d4a: 089c3485     	or	t#1, a7<<1, 	->a7
70004d4e: 03f25f95     	srli	a2, 63, 	->t
70004d52: 082c3105     	or	t#1, a0<<1, 	->a0
70004d56: 03f35f95     	srli	a4, 63, 	->t
70004d5a: 084c3205     	or	t#1, a2<<1, 	->a2
70004d5e: 00137315     	slli	a4, 1, 	->a4

0000000070004d62 <.LBB0_7>:
; .LBB0_7():
70004d62: 0800         	C.BSTART.STD	
70004d64: 00128295     	addi	a3, 1, 	->a3

0000000070004d68 <.LBB0_8>:
; .LBB0_8():
70004d68: 00b4         	C.BSTART.STD	COND, 0x70004d7e <.LBB0_10>
70004d6a: 00007f97     	lui	7, 	->t
70004d6e: fffc0f95     	addi	t#1, 4095, 	->t
70004d72: 0182c065     	setc.lt	a3, t#1
70004d76: 17f2         	C.BSTART.STD	DIRECT, 0x70005074 <.LBB0_35>
70004d78: 1006         	c.movr	zero, 	->a0
70004d7a: c0e1b1e7     	bis	a1, 48, 15, 	->a1

0000000070004d7e <.LBB0_10>:
; .LBB0_10():
70004d7e: 02a4         	C.BSTART.STD	COND, 0x70004dd2 <.LBB0_17>
70004d80: 00505065     	setc.ge	zero, a3
70004d84: 0cc2         	C.BSTART.STD	DIRECT, 0x70004f1c <.LBB0_23>
70004d86: c0f4afe7     	bic	a7, 48, 16, 	->t
70004d8a: 0302ff95     	slli	a3, 48, 	->t
70004d8e: 019c3285     	or	t#1, t#2, 	->a3

0000000070004d92 <.LBB0_12>:
; .LBB0_12():
70004d92: 0104         	C.BSTART.STD	COND, 0x70004db2 <.LBB0_14>
70004d94: fc02a367     	bic	a3, 63, 1, 	->a4
70004d98: 00c30fc5     	cmp.eq	a4, s1, 	->t
70004d9c: 00c36fc5     	cmp.ltu	a4, s1, 	->t
70004da0: 00020fd5     	cmp.eqi	a2, 0, 	->t
70004da4: d19c0ff7     	csel	t#3, t#1, t#2, 	->t
70004da8: 0636         	c.setc.ne	t#1, zero
70004daa: 1652         	C.BSTART.STD	DIRECT, 0x70005074 <.LBB0_35>
70004dac: 1106         	c.movr	a2, 	->a0
70004dae: bc02b1e7     	bis	a3, 47, 1, 	->a1

0000000070004db2 <.LBB0_14>:
; .LBB0_14():
70004db2: 0184         	C.BSTART.STD	COND, 0x70004de2 <.LBB0_19>
70004db4: 07ffff97     	lui	32767, 	->t
70004db8: 024c7295     	slli	t#1, 36, 	->a3
70004dbc: 0055cf85     	xor	s0, a3, 	->t
70004dc0: 01813065     	setc.or	a0, t#1
70004dc4: 1484         	C.BSTART.STD	COND, 0x70005054 <.LBB0_31>
70004dc6: 3138         	c.or	a2, a4, ->t
70004dc8: 0626         	c.setc.eq	t#1, zero
70004dca: 1552         	C.BSTART.STD	DIRECT, 0x70005074 <.LBB0_35>
70004dcc: 1006         	c.movr	zero, 	->a0
70004dce: c0e1b1e7     	bis	a1, 48, 15, 	->a1

0000000070004dd2 <.LBB0_17>:
; .LBB0_17():
70004dd2: 0164         	C.BSTART.STD	COND, 0x70004dfe <.LBB0_22>
70004dd4: f856         	c.movi	1, 	->t
70004dd6: 005c1285     	sub	t#1, a3, 	->a3
70004dda: 0802e075     	setc.ltui	a3, 128
70004dde: 14b2         	C.BSTART.STD	DIRECT, 0x70005074 <.LBB0_35>
70004de0: 1006         	c.movr	zero, 	->a0

0000000070004de2 <.LBB0_19>:
; .LBB0_19():
70004de2: 0c14         	C.BSTART.STD	COND, 0x70004f64 <.LBB0_27>
70004de4: 00534f85     	xor	a4, a3, 	->t
70004de8: 01823065     	setc.or	a2, t#1
70004dec: 58b8         	c.or	a0, s0, ->t
70004dee: 000c02d5     	cmp.eqi	t#1, 0, 	->a3
70004df2: 1374         	C.BSTART.STD	COND, 0x70005060 <.LBB0_32>
70004df4: 0176         	c.setc.ne	a3, zero
70004df6: 13f2         	C.BSTART.STD	DIRECT, 0x70005074 <.LBB0_35>
70004df8: 1006         	c.movr	zero, 	->a0
70004dfa: c0e1b1e7     	bis	a1, 48, 15, 	->a1

0000000070004dfe <.LBB0_22>:
; .LBB0_22():
70004dfe: 0800         	C.BSTART.STD	
70004e00: 695c         	c.zext.w	a3, ->t
70004e02: 01835f85     	srl	a4, t#1, 	->t
70004e06: 2a1c3059     	sdi	t#1, [sp, 168]
70004e0a: 08000f95     	addi	zero, 128, 	->t
70004e0e: 045c1f85     	sub	t#1, a3.uw, 	->t
70004e12: 01827f05     	sll	a2, t#1, 	->u
70004e16: fec6         	c.movr	t#4, 	->t
70004e18: 03f00f95     	addi	zero, 63, 	->t
70004e1c: d618         	c.sub	t#1, t#3, ->t
70004e1e: 707a         	c.sdi	t#1, [sp, 112]
70004e20: fec6         	c.movr	t#4, 	->t
70004e22: fec6         	c.movr	t#4, 	->t
70004e24: 00135f95     	srli	a4, 1, 	->t
70004e28: 01bc5f85     	srl	t#1, t#4, 	->t
70004e2c: 018e3f05     	or	u#1, t#1, 	->u
70004e30: fec6         	c.movr	t#4, 	->t
70004e32: fec6         	c.movr	t#4, 	->t
70004e34: 04000f95     	addi	zero, 64, 	->t
70004e38: 045c1f05     	sub	t#1, a3.uw, 	->u
70004e3c: 01c37f85     	sll	a4, u#1, 	->t
70004e40: 000e4f55     	cmp.lti	u#1, 0, 	->u
70004e44: fec6         	c.movr	t#4, 	->t
70004e46: fec6         	c.movr	t#4, 	->t
70004e48: e1af0ff7     	csel	u#1, u#3, t#3, 	->t
70004e4c: 01a37f85     	sll	a4, t#3, 	->t
70004e50: 03feef15     	srai	u#2, 63, 	->u
70004e54: fec6         	c.movr	t#4, 	->t
70004e56: fec6         	c.movr	t#4, 	->t
70004e58: fec6         	c.movr	t#4, 	->t
70004e5a: df28         	c.and	u#1, t#4, ->t
70004e5c: fec6         	c.movr	t#4, 	->t
70004e5e: fec6         	c.movr	t#4, 	->t
70004e60: 01bd3fc5     	cmp.or	t#3, t#4, 	->t
70004e64: 241c3059     	sdi	t#1, [sp, 144]
70004e68: 01a4ff85     	sll	a7, t#3, 	->t
70004e6c: 407a         	c.sdi	t#1, [sp, 64]
70004e6e: fec6         	c.movr	t#4, 	->t
70004e70: fec6         	c.movr	t#4, 	->t
70004e72: 00115f95     	srli	a0, 1, 	->t
70004e76: 705a         	c.ldi	[sp, 112], ->t
70004e78: fec6         	c.movr	t#4, 	->t
70004e7a: fec6         	c.movr	t#4, 	->t
70004e7c: 01addf85     	srl	t#4, t#3, 	->t
70004e80: 405a         	c.ldi	[sp, 64], ->t
70004e82: fec6         	c.movr	t#4, 	->t
70004e84: fec6         	c.movr	t#4, 	->t
70004e86: deb8         	c.or	t#3, t#4, ->t
70004e88: 01e17f85     	sll	a0, u#3, 	->t
70004e8c: fec6         	c.movr	t#4, 	->t
70004e8e: fec6         	c.movr	t#4, 	->t
70004e90: e9ad8ff7     	csel	u#2, t#4, t#3, 	->t
70004e94: 201c3059     	sdi	t#1, [sp, 128]
70004e98: 01a17f85     	sll	a0, t#3, 	->t
70004e9c: 018e2f05     	and	u#1, t#1, 	->u
70004ea0: 03f00f95     	addi	zero, 63, 	->t
70004ea4: 045c1f05     	sub	t#1, a3.uw, 	->u
70004ea8: fec6         	c.movr	t#4, 	->t
70004eaa: 00127f95     	slli	a2, 1, 	->t
70004eae: 01cc7f85     	sll	t#1, u#1, 	->t
70004eb2: 0150bf99     	ldi	[sp, 168], 	->t
70004eb6: fec6         	c.movr	t#4, 	->t
70004eb8: d678         	c.or	t#2, t#3, ->t
70004eba: 040c9f15     	subi	t#2, 64, 	->u
70004ebe: 01c25f85     	srl	a2, u#1, 	->t
70004ec2: 000e4fd5     	cmp.lti	u#1, 0, 	->t
70004ec6: fec6         	c.movr	t#4, 	->t
70004ec8: c9ad8ff7     	csel	t#2, t#4, t#3, 	->t
70004ecc: c7b8         	c.or	u#3, t#1, ->t
70004ece: fec6         	c.movr	t#4, 	->t
70004ed0: fec6         	c.movr	t#4, 	->t
70004ed2: 0120bf99     	ldi	[sp, 144], 	->t
70004ed6: 018db305     	or	t#4, t#1, 	->a4
70004eda: 01925f85     	srl	a2, t#2, 	->t
70004ede: 03fe6f15     	srai	u#1, 63, 	->u
70004ee2: fec6         	c.movr	t#4, 	->t
70004ee4: fec6         	c.movr	t#4, 	->t
70004ee6: d728         	c.and	u#1, t#3, ->t
70004ee8: 0100bf99     	ldi	[sp, 128], 	->t
70004eec: 019c3205     	or	t#1, t#2, 	->a2
70004ef0: fec6         	c.movr	t#4, 	->t
70004ef2: fec6         	c.movr	t#4, 	->t
70004ef4: 01815f85     	srl	a0, t#1, 	->t
70004ef8: 0014ff95     	slli	a7, 1, 	->t
70004efc: fec6         	c.movr	t#4, 	->t
70004efe: fec6         	c.movr	t#4, 	->t
70004f00: fec6         	c.movr	t#4, 	->t
70004f02: 01edff85     	sll	t#4, u#3, 	->t
70004f06: fec6         	c.movr	t#4, 	->t
70004f08: fec6         	c.movr	t#4, 	->t
70004f0a: d6f8         	c.or	t#4, t#3, ->t
70004f0c: 01d4df85     	srl	a7, u#2, 	->t
70004f10: d98c8177     	csel	t#4, t#2, t#1, 	->a0
70004f14: 01a4df85     	srl	a7, t#3, 	->t
70004f18: 018e2285     	and	u#1, t#1, 	->a3

0000000070004f1c <.LBB0_23>:
; .LBB0_23():
70004f1c: 0164         	C.BSTART.STD	COND, 0x70004f48 <.LBB0_25>
70004f1e: 0032b185     	or	a3, a1, 	->a1
70004f22: ffd6         	c.movi	-1, 	->t
70004f24: 03fc7295     	slli	t#1, 63, 	->a3
70004f28: 00520fc5     	cmp.eq	a2, a3, 	->t
70004f2c: 004ccfc5     	cmp.lt	t#2, a2, 	->t
70004f30: 00030fd5     	cmp.eqi	a4, 0, 	->t
70004f34: d19c0ff7     	csel	t#3, t#1, t#2, 	->t
70004f38: 0636         	c.setc.ne	t#1, zero
70004f3a: 09d2         	C.BSTART.STD	DIRECT, 0x70005074 <.LBB0_35>
70004f3c: 088c         	c.addi	a0, 1, ->t
70004f3e: 002c6fc5     	cmp.ltu	t#1, a0, 	->t
70004f42: 1646         	c.movr	t#2, 	->a0
70004f44: 01818185     	add	a1, t#1, 	->a1

0000000070004f48 <.LBB0_25>:
; .LBB0_25():
70004f48: 0964         	C.BSTART.STD	COND, 0x70005074 <.LBB0_35>
70004f4a: 00524f85     	xor	a2, a3, 	->t
70004f4e: 01833065     	setc.or	a4, t#1
70004f52: 0912         	C.BSTART.STD	DIRECT, 0x70005074 <.LBB0_35>
70004f54: 07e12fe7     	bic	a0, 1, 63, 	->t
70004f58: c088         	c.add	a0, t#1, ->t
70004f5a: 002c6fc5     	cmp.ltu	t#1, a0, 	->t
70004f5e: 1646         	c.movr	t#2, 	->a0
70004f60: 01818185     	add	a1, t#1, 	->a1

0000000070004f64 <.LBB0_27>:
; .LBB0_27():
70004f64: 0844         	C.BSTART.STD	COND, 0x7000506c <.LBB0_33>
70004f66: 0176         	c.setc.ne	a3, zero
70004f68: 0844         	C.BSTART.STD	COND, 0x70005070 <.LBB0_34>
70004f6a: 3138         	c.or	a2, a4, ->t
70004f6c: 0626         	c.setc.eq	t#1, zero
70004f6e: 0854         	C.BSTART.STD	COND, 0x70005078 <.LBB0_36>
70004f70: 0305df95     	srli	s0, 48, 	->t
70004f74: 0636         	c.setc.ne	t#1, zero
70004f76: 0832         	C.BSTART.STD	DIRECT, 0x7000507c <.LBB0_37>
70004f78: 00048f55     	cmp.eqi	a7, 0, 	->u
70004f7c: e0910ff7     	csel	u#1, a0, a7, 	->t
70004f80: 186c         	c.srli	t#1, 1, ->t
70004f82: c678         	c.or	t#2, t#1, ->t
70004f84: 18ac         	c.srli	t#1, 2, ->t
70004f86: c678         	c.or	t#2, t#1, ->t
70004f88: 192c         	c.srli	t#1, 4, ->t
70004f8a: c678         	c.or	t#2, t#1, ->t
70004f8c: 1a2c         	c.srli	t#1, 8, ->t
70004f8e: c678         	c.or	t#2, t#1, ->t
70004f90: 1c2c         	c.srli	t#1, 16, ->t
70004f92: c678         	c.or	t#2, t#1, ->t
70004f94: 020c5f95     	srli	t#1, 32, 	->t
70004f98: c678         	c.or	t#2, t#1, ->t
70004f9a: fffc4f15     	xori	t#1, -1, 	->u
70004f9e: 001e5f95     	srli	u#1, 1, 	->t
70004fa2: 55555f97     	lui	349525, 	->t
70004fa6: 555c0f95     	addi	t#1, 1365, 	->t
70004faa: 103e 2fcd 018c       	hl.bfi	t#1, t#1, 4, 4, 	->t
70004fb0: c6e8         	c.and	t#4, t#1, ->t
70004fb2: 018e1f05     	sub	u#1, t#1, 	->u
70004fb6: 002e5f15     	srli	u#1, 2, 	->u
70004fba: 33333f97     	lui	209715, 	->t
70004fbe: 333c0f95     	addi	t#1, 819, 	->t
70004fc2: 103e 2fcd 018c       	hl.bfi	t#1, t#1, 4, 4, 	->t
70004fc8: c768         	c.and	u#2, t#1, ->t
70004fca: cf28         	c.and	u#1, t#2, ->t
70004fcc: c648         	c.add	t#2, t#1, ->t
70004fce: 192c         	c.srli	t#1, 4, ->t
70004fd0: c648         	c.add	t#2, t#1, ->t
70004fd2: 0f0f0f97     	lui	61680, 	->t
70004fd6: f0fc0f95     	addi	t#1, 3855, 	->t
70004fda: 103e 2fcd 018c       	hl.bfi	t#1, t#1, 4, 4, 	->t
70004fe0: c6e8         	c.and	t#4, t#1, ->t
70004fe2: 01010f97     	lui	4112, 	->t
70004fe6: 101c0f95     	addi	t#1, 257, 	->t
70004fea: 103e 2fcd 018c       	hl.bfi	t#1, t#1, 4, 4, 	->t
70004ff0: 018d8fc7     	mul	t#4, t#1, 	->t
70004ff4: 038c5f95     	srli	t#1, 56, 	->t
70004ff8: 31fc3f85     	or	t#1, u#4<<6, 	->t
70004ffc: 00fc1f15     	subi	t#1, 15, 	->u
70005000: 81fe2f67     	bic	u#1, 32, 32, 	->u
70005004: 01c17f85     	sll	a0, u#1, 	->t
70005008: 040e1f15     	subi	u#1, 64, 	->u
7000500c: 03fe6f95     	srai	u#1, 63, 	->t
70005010: ce28         	c.and	t#1, t#2, ->t
70005012: fec6         	c.movr	t#4, 	->t
70005014: 03f00f95     	addi	zero, 63, 	->t
70005018: 05ec1f85     	sub	t#1, u#3.uw, 	->t
7000501c: fec6         	c.movr	t#4, 	->t
7000501e: fec6         	c.movr	t#4, 	->t
70005020: 00115f95     	srli	a0, 1, 	->t
70005024: 01bc5f85     	srl	t#1, t#4, 	->t
70005028: fec6         	c.movr	t#4, 	->t
7000502a: fec6         	c.movr	t#4, 	->t
7000502c: 01d4ff85     	sll	a7, u#2, 	->t
70005030: de38         	c.or	t#1, t#4, ->t
70005032: fec6         	c.movr	t#4, 	->t
70005034: fec6         	c.movr	t#4, 	->t
70005036: 01c17f85     	sll	a0, u#1, 	->t
7000503a: 1686         	c.movr	t#3, 	->a0
7000503c: fec6         	c.movr	t#4, 	->t
7000503e: 000e4fd5     	cmp.lti	u#1, 0, 	->t
70005042: c1ac84f7     	csel	t#1, t#2, t#3, 	->a7
70005046: 0204db15     	srli	a7, 32, 	->x2
7000504a: fec6         	c.movr	t#4, 	->t
7000504c: 01000f95     	addi	zero, 16, 	->t
70005050: 019c1285     	sub	t#1, t#2, 	->a3

0000000070005054 <.LBB0_31>:
; .LBB0_31():
70005054: 0102         	C.BSTART.STD	DIRECT, 0x70005074 <.LBB0_35>
70005056: 1006         	c.movr	zero, 	->a0
70005058: 0fffff97     	lui	65535, 	->t
7000505c: 023c7195     	slli	t#1, 35, 	->a1

0000000070005060 <.LBB0_32>:
; .LBB0_32():
70005060: 00a2         	C.BSTART.STD	DIRECT, 0x70005074 <.LBB0_35>
70005062: 1006         	c.movr	zero, 	->a0
70005064: 0fffff97     	lui	65535, 	->t
70005068: 023c7195     	slli	t#1, 35, 	->a1

000000007000506c <.LBB0_33>:
; .LBB0_33():
7000506c: 0042         	C.BSTART.STD	DIRECT, 0x70005074 <.LBB0_35>
7000506e: 1006         	c.movr	zero, 	->a0

0000000070005070 <.LBB0_34>:
; .LBB0_34():
70005070: 0800         	C.BSTART.STD	
70005072: 1006         	c.movr	zero, 	->a0

0000000070005074 <.LBB0_35>:
; .LBB0_35():
70005074: 40c5a041     	FRET.RA	[s0 ~ s1], sp!, 256

0000000070005078 <.LBB0_36>:
; .LBB0_36():
70005078: 0800         	C.BSTART.STD	
7000507a: 2806         	c.movr	zero, 	->a3

000000007000507c <.LBB0_37>:
; .LBB0_37():
7000507c: d4a4         	C.BSTART.STD	COND, 0x70004b10 <.LBB0_5>
7000507e: 03035f95     	srli	a4, 48, 	->t
70005082: 0636         	c.setc.ne	t#1, zero
70005084: d462         	C.BSTART.STD	DIRECT, 0x70004b10 <.LBB0_5>
70005086: 000a8f55     	cmp.eqi	x1, 0, 	->u
7000508a: e1520ff7     	csel	u#1, a2, x1, 	->t
7000508e: 186c         	c.srli	t#1, 1, ->t
70005090: c678         	c.or	t#2, t#1, ->t
70005092: 18ac         	c.srli	t#1, 2, ->t
70005094: c678         	c.or	t#2, t#1, ->t
70005096: 192c         	c.srli	t#1, 4, ->t
70005098: c678         	c.or	t#2, t#1, ->t
7000509a: 1a2c         	c.srli	t#1, 8, ->t
7000509c: c678         	c.or	t#2, t#1, ->t
7000509e: 1c2c         	c.srli	t#1, 16, ->t
700050a0: c678         	c.or	t#2, t#1, ->t
700050a2: 020c5f95     	srli	t#1, 32, 	->t
700050a6: c678         	c.or	t#2, t#1, ->t
700050a8: fffc4f15     	xori	t#1, -1, 	->u
700050ac: 001e5f95     	srli	u#1, 1, 	->t
700050b0: 55555f97     	lui	349525, 	->t
700050b4: 555c0f95     	addi	t#1, 1365, 	->t
700050b8: 103e 2fcd 018c       	hl.bfi	t#1, t#1, 4, 4, 	->t
700050be: c6e8         	c.and	t#4, t#1, ->t
700050c0: 018e1f05     	sub	u#1, t#1, 	->u
700050c4: 002e5f15     	srli	u#1, 2, 	->u
700050c8: 33333f97     	lui	209715, 	->t
700050cc: 333c0f95     	addi	t#1, 819, 	->t
700050d0: 103e 2fcd 018c       	hl.bfi	t#1, t#1, 4, 4, 	->t
700050d6: c768         	c.and	u#2, t#1, ->t
700050d8: cf28         	c.and	u#1, t#2, ->t
700050da: c648         	c.add	t#2, t#1, ->t
700050dc: 192c         	c.srli	t#1, 4, ->t
700050de: c648         	c.add	t#2, t#1, ->t
700050e0: 0f0f0f97     	lui	61680, 	->t
700050e4: f0fc0f95     	addi	t#1, 3855, 	->t
700050e8: 103e 2fcd 018c       	hl.bfi	t#1, t#1, 4, 4, 	->t
700050ee: c6e8         	c.and	t#4, t#1, ->t
700050f0: 01010f97     	lui	4112, 	->t
700050f4: 101c0f95     	addi	t#1, 257, 	->t
700050f8: 103e 2fcd 018c       	hl.bfi	t#1, t#1, 4, 4, 	->t
700050fe: 018d8fc7     	mul	t#4, t#1, 	->t
70005102: 038c5f95     	srli	t#1, 56, 	->t
70005106: 31fc3f05     	or	t#1, u#4<<6, 	->u
7000510a: 00fe1f95     	subi	u#1, 15, 	->t
7000510e: 81fc2f67     	bic	t#1, 32, 32, 	->u
70005112: 01caff05     	sll	x1, u#1, 	->u
70005116: 03f00f95     	addi	zero, 63, 	->t
7000511a: 059c1f85     	sub	t#1, t#2.uw, 	->t
7000511e: 00125f95     	srli	a2, 1, 	->t
70005122: 019c5f85     	srl	t#1, t#2, 	->t
70005126: c738         	c.or	u#1, t#1, ->t
70005128: 040e9f95     	subi	u#2, 64, 	->t
7000512c: 01827f85     	sll	a2, t#1, 	->t
70005130: 000ccf55     	cmp.lti	t#2, 0, 	->u
70005134: e18d0af7     	csel	u#1, t#3, t#1, 	->x1
70005138: 01e27f85     	sll	a2, u#3, 	->t
7000513c: 03fd6f95     	srai	t#3, 63, 	->t
70005140: 019c2205     	and	t#1, t#2, 	->a2
70005144: f958         	c.sub	a3, u#4, ->t
70005146: 010c0295     	addi	t#1, 16, 	->a3
7000514a: 0800         	C.BSTART.STD	

000000007000514c <__addtf3>:
; __addtf3():
7000514c: 40e50041     	FENTRY	[ra ~ s3], sp!, 256
70005150: 0800         	C.BSTART.STD	
70005152: 0644         	C.BSTART.STD	COND, 0x7000521a <.LBB0_11>
70005154: 6146         	c.movr	a3, 	->s1
70005156: 5906         	c.movr	a2, 	->s0
70005158: 00010355     	cmp.eqi	a0, 0, 	->a4
7000515c: fc01a267     	bic	a1, 63, 1, 	->a2
70005160: 00020f55     	cmp.eqi	a2, 0, 	->u
70005164: fc0622e7     	bic	s1, 63, 1, 	->a3
70005168: 00028f55     	cmp.eqi	a3, 0, 	->u
7000516c: f8001f97     	lui	-32767, 	->t
70005170: 024c7f15     	slli	t#1, 36, 	->u
70005174: e108         	c.add	a2, u#1, ->t
70005176: 01cc6fc5     	cmp.ltu	t#1, u#1, 	->t
7000517a: f1830ff7     	csel	u#3, a4, t#1, 	->t
7000517e: e148         	c.add	a3, u#1, ->t
70005180: 01cc6fc5     	cmp.ltu	t#1, u#1, 	->t
70005184: 000583d5     	cmp.eqi	s0, 0, 	->a5
70005188: e9838ff7     	csel	u#2, a5, t#1, 	->t
7000518c: c6f8         	c.or	t#4, t#1, ->t
7000518e: 0626         	c.setc.eq	t#1, zero
70005190: 0104         	C.BSTART.STD	COND, 0x700051b0 <.LBB0_4>
70005192: 07ffff97     	lui	32767, 	->t
70005196: 024c7415     	slli	t#1, 36, 	->a6
7000519a: 00820fc5     	cmp.eq	a2, a6, 	->t
7000519e: 00826fc5     	cmp.ltu	a2, a6, 	->t
700051a2: c9830ff7     	csel	t#2, a4, t#1, 	->t
700051a6: 0636         	c.setc.ne	t#1, zero
700051a8: 2d62         	C.BSTART.STD	DIRECT, 0x70005754 <.LBB0_42>
700051aa: 5886         	c.movr	a0, 	->s0
700051ac: bc01b667     	bis	a1, 47, 1, 	->s1

00000000700051b0 <.LBB0_4>:
; .LBB0_4():
700051b0: 00b4         	C.BSTART.STD	COND, 0x700051c6 <.LBB0_6>
700051b2: 00828fc5     	cmp.eq	a3, a6, 	->t
700051b6: 0082efc5     	cmp.ltu	a3, a6, 	->t
700051ba: c9838ff7     	csel	t#2, a5, t#1, 	->t
700051be: 0636         	c.setc.ne	t#1, zero
700051c0: 2ca2         	C.BSTART.STD	DIRECT, 0x70005754 <.LBB0_42>
700051c2: bc063667     	bis	s1, 47, 1, 	->s1

00000000700051c6 <.LBB0_6>:
; .LBB0_6():
700051c6: 01d4         	C.BSTART.STD	COND, 0x70005200 <.LBB0_8>
700051c8: 07ffff97     	lui	32767, 	->t
700051cc: 024c7315     	slli	t#1, 36, 	->a4
700051d0: 00624f85     	xor	a2, a4, 	->t
700051d4: 01813065     	setc.or	a0, t#1
700051d8: 2be2         	C.BSTART.STD	DIRECT, 0x70005754 <.LBB0_42>
700051da: 0025cf05     	xor	s0, a0, 	->u
700051de: 00364f85     	xor	s1, a1, 	->t
700051e2: ffd6         	c.movi	-1, 	->t
700051e4: 03fc7f95     	slli	t#1, 63, 	->t
700051e8: 018d4f85     	xor	t#3, t#1, 	->t
700051ec: c738         	c.or	u#1, t#1, ->t
700051ee: 002c         	c.cmp.eqi	t#1, 0, ->t
700051f0: c02005f7     	csel	t#1, zero, a0, 	->s0
700051f4: 0fffff97     	lui	65535, 	->t
700051f8: 023c7f95     	slli	t#1, 35, 	->t
700051fc: d03c0677     	csel	t#3, t#1, a1, 	->s1

0000000070005200 <.LBB0_8>:
; .LBB0_8():
70005200: 2aa4         	C.BSTART.STD	COND, 0x70005754 <.LBB0_42>
70005202: 0062cf85     	xor	a3, a4, 	->t
70005206: c2f8         	c.or	s0, t#1, ->t
70005208: 0626         	c.setc.eq	t#1, zero
7000520a: 2aa4         	C.BSTART.STD	COND, 0x7000575e <.LBB0_44>
7000520c: 20b8         	c.or	a0, a2, ->t
7000520e: 0626         	c.setc.eq	t#1, zero
70005210: 2af8         	c.or	s0, a3, ->t
70005212: 000c0355     	cmp.eqi	t#1, 0, 	->a4
70005216: 2ab4         	C.BSTART.STD	COND, 0x7000576c <.LBB0_46>
70005218: 01b6         	c.setc.ne	a4, zero

000000007000521a <.LBB0_11>:
; .LBB0_11():
7000521a: 07a4         	C.BSTART.STD	COND, 0x7000530e <.LBB0_13>
7000521c: 00b16fc5     	cmp.ltu	a0, s0, 	->t
70005220: 00428fc5     	cmp.eq	a3, a2, 	->t
70005224: 00526fc5     	cmp.ltu	a2, a3, 	->t
70005228: c98d04f7     	csel	t#2, t#3, t#1, 	->a7
7000522c: 48c18377     	csel	a7, a1, s1, 	->a4
70005230: c0e31467     	bxu	a4, 48, 15, 	->a6
70005234: 482582f7     	csel	a7, s0, a0, 	->a3
70005238: 483601f7     	csel	a7, s1, a1, 	->a1
7000523c: c0e19267     	bxu	a1, 48, 15, 	->a2
70005240: 0136         	c.setc.ne	a2, zero
70005242: c0f1a3e7     	bic	a1, 48, 16, 	->a5
70005246: 0800         	C.BSTART.STD	
70005248: 00038f55     	cmp.eqi	a5, 0, 	->u
7000524c: e0728ff7     	csel	u#1, a3, a5, 	->t
70005250: 186c         	c.srli	t#1, 1, ->t
70005252: c678         	c.or	t#2, t#1, ->t
70005254: 18ac         	c.srli	t#1, 2, ->t
70005256: c678         	c.or	t#2, t#1, ->t
70005258: 192c         	c.srli	t#1, 4, ->t
7000525a: c678         	c.or	t#2, t#1, ->t
7000525c: 1a2c         	c.srli	t#1, 8, ->t
7000525e: c678         	c.or	t#2, t#1, ->t
70005260: 1c2c         	c.srli	t#1, 16, ->t
70005262: c678         	c.or	t#2, t#1, ->t
70005264: 020c5f95     	srli	t#1, 32, 	->t
70005268: c678         	c.or	t#2, t#1, ->t
7000526a: fffc4f15     	xori	t#1, -1, 	->u
7000526e: 001e5f95     	srli	u#1, 1, 	->t
70005272: 55555f97     	lui	349525, 	->t
70005276: 555c0f95     	addi	t#1, 1365, 	->t
7000527a: 103e 2fcd 018c       	hl.bfi	t#1, t#1, 4, 4, 	->t
70005280: c6e8         	c.and	t#4, t#1, ->t
70005282: 018e1f05     	sub	u#1, t#1, 	->u
70005286: 002e5f15     	srli	u#1, 2, 	->u
7000528a: 33333f97     	lui	209715, 	->t
7000528e: 333c0f95     	addi	t#1, 819, 	->t
70005292: 103e 2fcd 018c       	hl.bfi	t#1, t#1, 4, 4, 	->t
70005298: c768         	c.and	u#2, t#1, ->t
7000529a: cf28         	c.and	u#1, t#2, ->t
7000529c: c648         	c.add	t#2, t#1, ->t
7000529e: 192c         	c.srli	t#1, 4, ->t
700052a0: c648         	c.add	t#2, t#1, ->t
700052a2: 0f0f0f97     	lui	61680, 	->t
700052a6: f0fc0f95     	addi	t#1, 3855, 	->t
700052aa: 103e 2fcd 018c       	hl.bfi	t#1, t#1, 4, 4, 	->t
700052b0: c6e8         	c.and	t#4, t#1, ->t
700052b2: 01010f97     	lui	4112, 	->t
700052b6: 101c0f95     	addi	t#1, 257, 	->t
700052ba: 103e 2fcd 018c       	hl.bfi	t#1, t#1, 4, 4, 	->t
700052c0: 018d8fc7     	mul	t#4, t#1, 	->t
700052c4: 038c5f95     	srli	t#1, 56, 	->t
700052c8: 31fc3f05     	or	t#1, u#4<<6, 	->u
700052cc: 00fe1f95     	subi	u#1, 15, 	->t
700052d0: 81fc2f67     	bic	t#1, 32, 32, 	->u
700052d4: 01c3ff05     	sll	a5, u#1, 	->u
700052d8: 03f00f95     	addi	zero, 63, 	->t
700052dc: 059c1f85     	sub	t#1, t#2.uw, 	->t
700052e0: 0012df95     	srli	a3, 1, 	->t
700052e4: 019c5f85     	srl	t#1, t#2, 	->t
700052e8: c738         	c.or	u#1, t#1, ->t
700052ea: 040e9f95     	subi	u#2, 64, 	->t
700052ee: 0182ff85     	sll	a3, t#1, 	->t
700052f2: 000ccf55     	cmp.lti	t#2, 0, 	->u
700052f6: e18d03f7     	csel	u#1, t#3, t#1, 	->a5
700052fa: 01e2ff85     	sll	a3, u#3, 	->t
700052fe: 03fd6f95     	srai	t#3, 63, 	->t
70005302: 019c2285     	and	t#1, t#2, 	->a3
70005306: 01000f95     	addi	zero, 16, 	->t
7000530a: 01fc1205     	sub	t#1, u#4, 	->a2

000000007000530e <.LBB0_13>:
; .LBB0_13():
7000530e: 06a4         	C.BSTART.STD	COND, 0x700053e2 <.LBB0_15>
70005310: 0236         	c.setc.ne	a6, zero
70005312: 48b104f7     	csel	a7, a0, s0, 	->a7
70005316: c0f32167     	bic	a4, 48, 16, 	->a0
7000531a: 0800         	C.BSTART.STD	
7000531c: 00010f55     	cmp.eqi	a0, 0, 	->u
70005320: e0248ff7     	csel	u#1, a7, a0, 	->t
70005324: 186c         	c.srli	t#1, 1, ->t
70005326: c678         	c.or	t#2, t#1, ->t
70005328: 18ac         	c.srli	t#1, 2, ->t
7000532a: c678         	c.or	t#2, t#1, ->t
7000532c: 192c         	c.srli	t#1, 4, ->t
7000532e: c678         	c.or	t#2, t#1, ->t
70005330: 1a2c         	c.srli	t#1, 8, ->t
70005332: c678         	c.or	t#2, t#1, ->t
70005334: 1c2c         	c.srli	t#1, 16, ->t
70005336: c678         	c.or	t#2, t#1, ->t
70005338: 020c5f95     	srli	t#1, 32, 	->t
7000533c: c678         	c.or	t#2, t#1, ->t
7000533e: fffc4f15     	xori	t#1, -1, 	->u
70005342: 001e5f95     	srli	u#1, 1, 	->t
70005346: 55555f97     	lui	349525, 	->t
7000534a: 555c0f95     	addi	t#1, 1365, 	->t
7000534e: 103e 2fcd 018c       	hl.bfi	t#1, t#1, 4, 4, 	->t
70005354: c6e8         	c.and	t#4, t#1, ->t
70005356: 018e1f05     	sub	u#1, t#1, 	->u
7000535a: 002e5f15     	srli	u#1, 2, 	->u
7000535e: 33333f97     	lui	209715, 	->t
70005362: 333c0f95     	addi	t#1, 819, 	->t
70005366: 103e 2fcd 018c       	hl.bfi	t#1, t#1, 4, 4, 	->t
7000536c: c768         	c.and	u#2, t#1, ->t
7000536e: cf28         	c.and	u#1, t#2, ->t
70005370: c648         	c.add	t#2, t#1, ->t
70005372: 192c         	c.srli	t#1, 4, ->t
70005374: c648         	c.add	t#2, t#1, ->t
70005376: 0f0f0f97     	lui	61680, 	->t
7000537a: f0fc0f95     	addi	t#1, 3855, 	->t
7000537e: 103e 2fcd 018c       	hl.bfi	t#1, t#1, 4, 4, 	->t
70005384: c6e8         	c.and	t#4, t#1, ->t
70005386: 01010f97     	lui	4112, 	->t
7000538a: 101c0f95     	addi	t#1, 257, 	->t
7000538e: 103e 2fcd 018c       	hl.bfi	t#1, t#1, 4, 4, 	->t
70005394: 018d8fc7     	mul	t#4, t#1, 	->t
70005398: 038c5f95     	srli	t#1, 56, 	->t
7000539c: 31fc3f05     	or	t#1, u#4<<6, 	->u
700053a0: 00fe1f95     	subi	u#1, 15, 	->t
700053a4: 81fc2f67     	bic	t#1, 32, 32, 	->u
700053a8: 01c17f05     	sll	a0, u#1, 	->u
700053ac: 03f00f95     	addi	zero, 63, 	->t
700053b0: 059c1f85     	sub	t#1, t#2.uw, 	->t
700053b4: 0014df95     	srli	a7, 1, 	->t
700053b8: 019c5f85     	srl	t#1, t#2, 	->t
700053bc: c738         	c.or	u#1, t#1, ->t
700053be: 040e9f95     	subi	u#2, 64, 	->t
700053c2: 0184ff85     	sll	a7, t#1, 	->t
700053c6: 000ccf55     	cmp.lti	t#2, 0, 	->u
700053ca: e18d0177     	csel	u#1, t#3, t#1, 	->a0
700053ce: 01e4ff85     	sll	a7, u#3, 	->t
700053d2: 03fd6f95     	srai	t#3, 63, 	->t
700053d6: 019c2485     	and	t#1, t#2, 	->a7
700053da: 01000f95     	addi	zero, 16, 	->t
700053de: 01fc1405     	sub	t#1, u#4, 	->a6

00000000700053e2 <.LBB0_15>:
; .LBB0_15():
700053e2: 0684         	C.BSTART.STD	COND, 0x700054b2 <.LBB0_19>
700053e4: 4126         	c.setc.eq	a2, a6
700053e6: 0061cf85     	xor	a1, a4, 	->t
700053ea: ffd6         	c.movi	-1, 	->t
700053ec: 019c4345     	cmp.lt	t#1, t#2, 	->a4
700053f0: 03d2df95     	srli	a3, 61, 	->t
700053f4: 187c3a05     	or	t#1, a5<<3, 	->x0
700053f8: 03d4df95     	srli	a7, 61, 	->t
700053fc: 182c3f85     	or	t#1, a0<<3, 	->t
70005400: cc0c3167     	bis	t#1, 51, 1, 	->a0
70005404: 0034f395     	slli	a7, 3, 	->a5
70005408: 0524         	C.BSTART.STD	COND, 0x700054ac <.LBB0_18>
7000540a: 00821405     	sub	a2, a6, 	->a6
7000540e: 07f00f95     	addi	zero, 127, 	->t
70005412: 008c6065     	setc.ltu	t#1, a6
70005416: 04e2         	C.BSTART.STD	DIRECT, 0x700054b2 <.LBB0_19>
70005418: 6a1c         	c.zext.w	a6, ->t
7000541a: 0183df85     	srl	a5, t#1, 	->t
7000541e: 341c3059     	sdi	t#1, [sp, 208]
70005422: 08000f95     	addi	zero, 128, 	->t
70005426: 048c1f85     	sub	t#1, a6.uw, 	->t
7000542a: 01817f05     	sll	a0, t#1, 	->u
7000542e: 03f00f15     	addi	zero, 63, 	->u
70005432: fec6         	c.movr	t#4, 	->t
70005434: cf18         	c.sub	u#1, t#2, ->t
70005436: 0013df95     	srli	a5, 1, 	->t
7000543a: fec6         	c.movr	t#4, 	->t
7000543c: fec6         	c.movr	t#4, 	->t
7000543e: 01bd5f85     	srl	t#3, t#4, 	->t
70005442: 018ebf05     	or	u#2, t#1, 	->u
70005446: 04000f95     	addi	zero, 64, 	->t
7000544a: 048c1f05     	sub	t#1, a6.uw, 	->u
7000544e: fec6         	c.movr	t#4, 	->t
70005450: fec6         	c.movr	t#4, 	->t
70005452: 01c3ff85     	sll	a5, u#1, 	->t
70005456: 000e4fd5     	cmp.lti	u#1, 0, 	->t
7000545a: fec6         	c.movr	t#4, 	->t
7000545c: fec6         	c.movr	t#4, 	->t
7000545e: d1be8ff7     	csel	t#3, u#2, t#4, 	->t
70005462: 01a3ff85     	sll	a5, t#3, 	->t
70005466: 03fe6f95     	srai	u#1, 63, 	->t
7000546a: fec6         	c.movr	t#4, 	->t
7000546c: fec6         	c.movr	t#4, 	->t
7000546e: dea8         	c.and	t#3, t#4, ->t
70005470: 019c3f45     	cmp.or	t#1, t#2, 	->u
70005474: 048f9f85     	sub	u#4, a6.uw, 	->t
70005478: fec6         	c.movr	t#4, 	->t
7000547a: 00117f95     	slli	a0, 1, 	->t
7000547e: 01ac7f85     	sll	t#1, t#3, 	->t
70005482: 01a0bf99     	ldi	[sp, 208], 	->t
70005486: fec6         	c.movr	t#4, 	->t
70005488: d678         	c.or	t#2, t#3, ->t
7000548a: 040c9f15     	subi	t#2, 64, 	->u
7000548e: 01c15f85     	srl	a0, u#1, 	->t
70005492: 000e4fd5     	cmp.lti	u#1, 0, 	->t
70005496: fec6         	c.movr	t#4, 	->t
70005498: c9ad8ff7     	csel	t#2, t#4, t#3, 	->t
7000549c: 01dc3385     	or	t#1, u#2, 	->a5
700054a0: 01915f85     	srl	a0, t#2, 	->t
700054a4: 03fe6f95     	srai	u#1, 63, 	->t
700054a8: 019c2105     	and	t#1, t#2, 	->a0

00000000700054ac <.LBB0_18>:
; .LBB0_18():
700054ac: 0800         	C.BSTART.STD	
700054ae: 1006         	c.movr	zero, 	->a0
700054b0: 3856         	c.movi	1, 	->a5

00000000700054b2 <.LBB0_19>:
; .LBB0_19():
700054b2: 0214         	C.BSTART.STD	COND, 0x700054f4 <.LBB0_22>
700054b4: 01a6         	c.setc.eq	a4, zero
700054b6: 0032f295     	slli	a3, 3, 	->a3
700054ba: cc0a3467     	bis	x0, 51, 1, 	->a6
700054be: 0924         	C.BSTART.STD	COND, 0x700055e2 <.LBB0_26>
700054c0: 00538285     	add	a5, a3, 	->a3
700054c4: 0072efc5     	cmp.ltu	a3, a5, 	->t
700054c8: 4088         	c.add	a0, a6, ->t
700054ca: 019c0105     	add	t#1, t#2, 	->a0
700054ce: f856         	c.movi	1, 	->t
700054d0: 034c7f95     	slli	t#1, 52, 	->t
700054d4: c0a8         	c.and	a0, t#1, ->t
700054d6: 0626         	c.setc.eq	t#1, zero
700054d8: 0852         	C.BSTART.STD	DIRECT, 0x700055e2 <.LBB0_26>
700054da: 07e2afe7     	bic	a3, 1, 63, 	->t
700054de: 0012df95     	srli	a3, 1, 	->t
700054e2: 03f17f95     	slli	a0, 63, 	->t
700054e6: c678         	c.or	t#2, t#1, ->t
700054e8: 01bc3285     	or	t#1, t#4, 	->a3
700054ec: 00115115     	srli	a0, 1, 	->a0
700054f0: 00120215     	addi	a2, 1, 	->a2

00000000700054f4 <.LBB0_22>:
; .LBB0_22():
700054f4: 00a4         	C.BSTART.STD	COND, 0x70005508 <.LBB0_24>
700054f6: 0072cf85     	xor	a3, a5, 	->t
700054fa: 00244f85     	xor	a6, a0, 	->t
700054fe: 018cb065     	setc.or	t#2, t#1
70005502: 1292         	C.BSTART.STD	DIRECT, 0x70005754 <.LBB0_42>
70005504: 5806         	c.movr	zero, 	->s0
70005506: 6006         	c.movr	zero, 	->s1

0000000070005508 <.LBB0_24>:
; .LBB0_24():
70005508: 06d4         	C.BSTART.STD	COND, 0x700055e2 <.LBB0_26>
7000550a: 0072efc5     	cmp.ltu	a3, a5, 	->t
7000550e: 1218         	c.sub	a6, a0, ->t
70005510: 019c1105     	sub	t#1, t#2, 	->a0
70005514: 03315f95     	srli	a0, 51, 	->t
70005518: 0636         	c.setc.ne	t#1, zero
7000551a: 00729285     	sub	a3, a5, 	->a3
7000551e: 0800         	C.BSTART.STD	
70005520: 00010f55     	cmp.eqi	a0, 0, 	->u
70005524: e0228ff7     	csel	u#1, a3, a0, 	->t
70005528: 186c         	c.srli	t#1, 1, ->t
7000552a: c678         	c.or	t#2, t#1, ->t
7000552c: 18ac         	c.srli	t#1, 2, ->t
7000552e: c678         	c.or	t#2, t#1, ->t
70005530: 192c         	c.srli	t#1, 4, ->t
70005532: c678         	c.or	t#2, t#1, ->t
70005534: 1a2c         	c.srli	t#1, 8, ->t
70005536: c678         	c.or	t#2, t#1, ->t
70005538: 1c2c         	c.srli	t#1, 16, ->t
7000553a: c678         	c.or	t#2, t#1, ->t
7000553c: 020c5f95     	srli	t#1, 32, 	->t
70005540: c678         	c.or	t#2, t#1, ->t
70005542: fffc4f15     	xori	t#1, -1, 	->u
70005546: 001e5f95     	srli	u#1, 1, 	->t
7000554a: 55555f97     	lui	349525, 	->t
7000554e: 555c0f95     	addi	t#1, 1365, 	->t
70005552: 103e 2fcd 018c       	hl.bfi	t#1, t#1, 4, 4, 	->t
70005558: c6e8         	c.and	t#4, t#1, ->t
7000555a: 018e1f05     	sub	u#1, t#1, 	->u
7000555e: 002e5f15     	srli	u#1, 2, 	->u
70005562: 33333f97     	lui	209715, 	->t
70005566: 333c0f95     	addi	t#1, 819, 	->t
7000556a: 103e 2fcd 018c       	hl.bfi	t#1, t#1, 4, 4, 	->t
70005570: c768         	c.and	u#2, t#1, ->t
70005572: cf28         	c.and	u#1, t#2, ->t
70005574: c648         	c.add	t#2, t#1, ->t
70005576: 192c         	c.srli	t#1, 4, ->t
70005578: c648         	c.add	t#2, t#1, ->t
7000557a: 0f0f0f97     	lui	61680, 	->t
7000557e: f0fc0f95     	addi	t#1, 3855, 	->t
70005582: 103e 2fcd 018c       	hl.bfi	t#1, t#1, 4, 4, 	->t
70005588: c6e8         	c.and	t#4, t#1, ->t
7000558a: 01010f97     	lui	4112, 	->t
7000558e: 101c0f95     	addi	t#1, 257, 	->t
70005592: 103e 2fcd 018c       	hl.bfi	t#1, t#1, 4, 4, 	->t
70005598: 018d8fc7     	mul	t#4, t#1, 	->t
7000559c: 038c5f95     	srli	t#1, 56, 	->t
700055a0: 31fc3f85     	or	t#1, u#4<<6, 	->t
700055a4: 00cc1f15     	subi	t#1, 12, 	->u
700055a8: 81fe2f67     	bic	u#1, 32, 32, 	->u
700055ac: 01c17f05     	sll	a0, u#1, 	->u
700055b0: 03f00f95     	addi	zero, 63, 	->t
700055b4: 05ec1f85     	sub	t#1, u#3.uw, 	->t
700055b8: 0012df95     	srli	a3, 1, 	->t
700055bc: 019c5f85     	srl	t#1, t#2, 	->t
700055c0: c738         	c.or	u#1, t#1, ->t
700055c2: 040e9f95     	subi	u#2, 64, 	->t
700055c6: 0182ff85     	sll	a3, t#1, 	->t
700055ca: 000ccf55     	cmp.lti	t#2, 0, 	->u
700055ce: e18d0177     	csel	u#1, t#3, t#1, 	->a0
700055d2: 01e2ff85     	sll	a3, u#3, 	->t
700055d6: 03fd6f95     	srai	t#3, 63, 	->t
700055da: 019c2285     	and	t#1, t#2, 	->a3
700055de: 01f21205     	sub	a2, u#4, 	->a2

00000000700055e2 <.LBB0_26>:
; .LBB0_26():
700055e2: 00d4         	C.BSTART.STD	COND, 0x700055fc <.LBB0_28>
700055e4: 03e1a6e7     	bic	a1, 0, 63, 	->s2
700055e8: 00007f97     	lui	7, 	->t
700055ec: fffc0f95     	addi	t#1, 4095, 	->t
700055f0: 01824065     	setc.lt	a2, t#1
700055f4: 0b02         	C.BSTART.STD	DIRECT, 0x70005754 <.LBB0_42>
700055f6: 5806         	c.movr	zero, 	->s0
700055f8: c0e6b667     	bis	s2, 48, 15, 	->s1

00000000700055fc <.LBB0_28>:
; .LBB0_28():
700055fc: 05d4         	C.BSTART.STD	COND, 0x700056b6 <.LBB0_30>
700055fe: 00404065     	setc.lt	zero, a2
70005602: 0800         	C.BSTART.STD	
70005604: f856         	c.movi	1, 	->t
70005606: 2618         	c.sub	t#1, a2, ->t
70005608: 2006         	c.movr	zero, 	->a2
7000560a: 6e1c         	c.zext.w	t#1, ->t
7000560c: 2e1c3059     	sdi	t#1, [sp, 184]
70005610: 01815f05     	srl	a0, t#1, 	->u
70005614: 08000f95     	addi	zero, 128, 	->t
70005618: 05ac1f85     	sub	t#1, t#3.uw, 	->t
7000561c: 01817f05     	sll	a0, t#1, 	->u
70005620: fec6         	c.movr	t#4, 	->t
70005622: 03f00f95     	addi	zero, 63, 	->t
70005626: d618         	c.sub	t#1, t#3, ->t
70005628: 301c3059     	sdi	t#1, [sp, 192]
7000562c: fec6         	c.movr	t#4, 	->t
7000562e: fec6         	c.movr	t#4, 	->t
70005630: 0012df95     	srli	a3, 1, 	->t
70005634: 0180bf99     	ldi	[sp, 192], 	->t
70005638: fec6         	c.movr	t#4, 	->t
7000563a: fec6         	c.movr	t#4, 	->t
7000563c: 01addf85     	srl	t#4, t#3, 	->t
70005640: 018e3f05     	or	u#1, t#1, 	->u
70005644: 04000f95     	addi	zero, 64, 	->t
70005648: 05ac1f05     	sub	t#1, t#3.uw, 	->u
7000564c: fec6         	c.movr	t#4, 	->t
7000564e: fec6         	c.movr	t#4, 	->t
70005650: 01c2ff85     	sll	a3, u#1, 	->t
70005654: 000e4fd5     	cmp.lti	u#1, 0, 	->t
70005658: fec6         	c.movr	t#4, 	->t
7000565a: fec6         	c.movr	t#4, 	->t
7000565c: d1be8ff7     	csel	t#3, u#2, t#4, 	->t
70005660: 321c3059     	sdi	t#1, [sp, 200]
70005664: 01a2ff85     	sll	a3, t#3, 	->t
70005668: 03fe6f95     	srai	u#1, 63, 	->t
7000566c: fec6         	c.movr	t#4, 	->t
7000566e: d668         	c.and	t#2, t#3, ->t
70005670: 0190bf99     	ldi	[sp, 200], 	->t
70005674: f7c6         	c.movr	u#4, 	->u
70005676: 018cbf45     	cmp.or	t#2, t#1, 	->u
7000567a: 0170bf99     	ldi	[sp, 184], 	->t
7000567e: 040c1f15     	subi	t#1, 64, 	->u
70005682: fec6         	c.movr	t#4, 	->t
70005684: 03fe6f95     	srai	u#1, 63, 	->t
70005688: 01ec2f05     	and	t#1, u#3, 	->u
7000568c: 03f00f95     	addi	zero, 63, 	->t
70005690: fec6         	c.movr	t#4, 	->t
70005692: 05bc9f85     	sub	t#2, t#4.uw, 	->t
70005696: 00117f95     	slli	a0, 1, 	->t
7000569a: 019c7f85     	sll	t#1, t#2, 	->t
7000569e: 01b2df85     	srl	a3, t#4, 	->t
700056a2: ce38         	c.or	t#1, t#2, ->t
700056a4: 01d15f85     	srl	a0, u#2, 	->t
700056a8: 1706         	c.movr	u#1, 	->a0
700056aa: 000ecfd5     	cmp.lti	u#2, 0, 	->t
700056ae: c19d0ff7     	csel	t#1, t#3, t#2, 	->t
700056b2: 01ec3285     	or	t#1, u#3, 	->a3

00000000700056b6 <.LBB0_30>:
; .LBB0_30():
700056b6: 05f2         	C.BSTART.STD	DIRECT, 0x70005774 <__fe_getround>
700056b8: 5416         	c.setret	0x700056d8, ->ra <.LBB0_30+0x22>
700056ba: 0fc2a767     	bic	a3, 3, 61, 	->s3
700056be: 0032df95     	srli	a3, 3, 	->t
700056c2: 03d17f95     	slli	a0, 61, 	->t
700056c6: 018cb585     	or	t#2, t#1, 	->s0
700056ca: 0ef11fe7     	bxu	a0, 3, 48, 	->t
700056ce: 03027f95     	slli	a2, 48, 	->t
700056d2: ce38         	c.or	t#1, t#2, ->t
700056d4: 00dc3605     	or	t#1, s2, 	->s1
; ():
700056d8: 0124         	C.BSTART.STD	COND, 0x700056fc <.LBB0_34>
700056da: 00114075     	setc.lti	a0, 1
700056de: 0264         	C.BSTART.STD	COND, 0x7000572a <.LBB0_37>
700056e0: 00215075     	setc.gei	a0, 2
700056e4: 0342         	C.BSTART.STD	DIRECT, 0x7000574c <.LBB0_40>
700056e6: 00069fd5     	cmp.nei	s2, 0, 	->t
700056ea: 00071fd5     	cmp.nei	s3, 0, 	->t
700056ee: c668         	c.and	t#2, t#1, ->t
700056f0: c2c8         	c.add	s0, t#1, ->t
700056f2: 00bc6fc5     	cmp.ltu	t#1, s0, 	->t
700056f6: 5e46         	c.movr	t#2, 	->s0
700056f8: 01860605     	add	s1, t#1, 	->s1

00000000700056fc <.LBB0_34>:
; .LBB0_34():
700056fc: 0284         	C.BSTART.STD	COND, 0x7000574c <.LBB0_40>
700056fe: 00b6         	c.setc.ne	a0, zero
70005700: 0244         	C.BSTART.STD	COND, 0x70005748 <.LBB0_39>
70005702: 00471075     	setc.nei	s3, 4
70005706: f916         	c.movi	4, 	->t
70005708: 00ec6fc5     	cmp.ltu	t#1, s3, 	->t
7000570c: 01858105     	add	s0, t#1, 	->a0
70005710: 00b16fc5     	cmp.ltu	a0, s0, 	->t
70005714: 01860605     	add	s1, t#1, 	->s1
70005718: 01c2         	C.BSTART.STD	DIRECT, 0x70005750 <.LBB0_41>
7000571a: 07e12fe7     	bic	a0, 1, 63, 	->t
7000571e: 002c0585     	add	t#1, a0, 	->s0
70005722: 0185efc5     	cmp.ltu	s0, t#1, 	->t
70005726: 01860605     	add	s1, t#1, 	->s1

000000007000572a <.LBB0_37>:
; .LBB0_37():
7000572a: 0114         	C.BSTART.STD	COND, 0x7000574c <.LBB0_40>
7000572c: 00211075     	setc.nei	a0, 2
70005730: 00e2         	C.BSTART.STD	DIRECT, 0x7000574c <.LBB0_40>
70005732: 00068fd5     	cmp.eqi	s2, 0, 	->t
70005736: 00071fd5     	cmp.nei	s3, 0, 	->t
7000573a: c668         	c.and	t#2, t#1, ->t
7000573c: c2c8         	c.add	s0, t#1, ->t
7000573e: 00bc6fc5     	cmp.ltu	t#1, s0, 	->t
70005742: 5e46         	c.movr	t#2, 	->s0
70005744: 01860605     	add	s1, t#1, 	->s1

0000000070005748 <.LBB0_39>:
; .LBB0_39():
70005748: 0800         	C.BSTART.STD	
7000574a: 5886         	c.movr	a0, 	->s0

000000007000574c <.LBB0_40>:
; .LBB0_40():
7000574c: 0044         	C.BSTART.STD	COND, 0x70005754 <.LBB0_42>
7000574e: 03a6         	c.setc.eq	s3, zero

0000000070005750 <.LBB0_41>:
; .LBB0_41():
70005750: 0162         	C.BSTART.STD	DIRECT, 0x7000577c <__fe_raise_inexact>
70005752: 5056         	c.setret	0x70005754, ->ra <.LBB0_42>

0000000070005754 <.LBB0_42>:
; ():
70005754: 0800         	C.BSTART.STD	
70005756: 12c6         	c.movr	s0, 	->a0
70005758: 1b06         	c.movr	s1, 	->a1
7000575a: 40e53041     	FRET.STK	[ra ~ s3], sp!, 256

000000007000575e <.LBB0_44>:
; .LBB0_44():
7000575e: ffb4         	C.BSTART.STD	COND, 0x70005754 <.LBB0_42>
70005760: 01a6         	c.setc.eq	a4, zero
70005762: ff92         	C.BSTART.STD	DIRECT, 0x70005754 <.LBB0_42>
70005764: 0025a585     	and	s0, a0, 	->s0
70005768: 00362605     	and	s1, a1, 	->s1

000000007000576c <.LBB0_46>:
; .LBB0_46():
7000576c: ff42         	C.BSTART.STD	DIRECT, 0x70005754 <.LBB0_42>
7000576e: 5886         	c.movr	a0, 	->s0
70005770: 60c6         	c.movr	a1, 	->s1
70005772: 0800         	C.BSTART.STD	

0000000070005774 <__fe_getround>:
; __fe_getround():
70005774: 3800         	C.BSTART.STD	RET
70005776: 1006         	c.movr	zero, 	->a0
70005778: 029c         	c.setc.tgt	ra
7000577a: 0800         	C.BSTART.STD	

000000007000577c <__fe_raise_inexact>:
; __fe_raise_inexact():
7000577c: 3800         	C.BSTART.STD	RET
7000577e: 1006         	c.movr	zero, 	->a0
70005780: 029c         	c.setc.tgt	ra
70005782: 0800         	C.BSTART.STD	

0000000070005784 <scalbn>:
; scalbn():
70005784: 01d4         	C.BSTART.STD	COND, 0x700057be <.LBB0_3>
70005786: 4001c075     	setc.lti	a1, 1024
7000578a: 001db101     	BSTART.FP	COND, 0x70005800 <.LBB0_6>
7000578e: 7ff1e075     	setc.ltui	a1, 2047
; ():
70005792: 00000f87     	addtpc	0, 	->t
70005796: 69ec3fa9     	ldi.u	[t#1, 1694], 	->t
7000579a: 0181214b     	fmul.fd	a0, t#1, 	->a0
7000579e: 001ba101     	BSTART.FP	DIRECT, 0x7000580c <.LBB0_8>
700057a2: 00000f87     	addtpc	0, 	->t
700057a6: 68ec3fa9     	ldi.u	[t#1, 1678], 	->t
700057aa: 0181214b     	fmul.fd	a0, t#1, 	->a0
700057ae: bfd00f95     	addi	zero, 3069, 	->t
700057b2: 0181cfc5     	cmp.lt	a1, t#1, 	->t
700057b6: c1918ff7     	csel	t#1, a1, t#2, 	->t
700057ba: 7fec1195     	subi	t#1, 2046, 	->a1

00000000700057be <.LBB0_3>:
; .LBB0_3():
700057be: 0274         	C.BSTART.STD	COND, 0x7000580c <.LBB0_8>
700057c0: 3ff01f95     	subi	zero, 1023, 	->t
700057c4: 003c4065     	setc.lt	t#1, a1
700057c8: 000fb101     	BSTART.FP	COND, 0x70005806 <.LBB0_7>
; ():
700057cc: 00000f87     	addtpc	0, 	->t
700057d0: 654c3fa9     	ldi.u	[t#1, 1620], 	->t
700057d4: 0181214b     	fmul.fd	a0, t#1, 	->a0
700057d8: 7c801f95     	subi	zero, 1992, 	->t
700057dc: 003c6065     	setc.ltu	t#1, a1
700057e0: 000b2101     	BSTART.FP	DIRECT, 0x7000580c <.LBB0_8>
700057e4: 00000f87     	addtpc	0, 	->t
700057e8: 63cc3fa9     	ldi.u	[t#1, 1596], 	->t
700057ec: 0181214b     	fmul.fd	a0, t#1, 	->a0
700057f0: b9001f95     	subi	zero, 2960, 	->t
700057f4: 003c4fc5     	cmp.lt	t#1, a1, 	->t
700057f8: c1918ff7     	csel	t#1, a1, t#2, 	->t
700057fc: 792c0195     	addi	t#1, 1938, 	->a1

0000000070005800 <.LBB0_6>:
; .LBB0_6():
70005800: 0062         	C.BSTART.STD	DIRECT, 0x7000580c <.LBB0_8>
70005802: 3ff19195     	subi	a1, 1023, 	->a1

0000000070005806 <.LBB0_7>:
; .LBB0_7():
70005806: 0800         	C.BSTART.STD	
70005808: 3c918195     	addi	a1, 969, 	->a1

000000007000580c <.LBB0_8>:
; .LBB0_8():
7000580c: 3880         	C.BSTART.FP	RET
7000580e: 0341ff95     	slli	a1, 52, 	->t
70005812: 3ff00f95     	addi	zero, 1023, 	->t
70005816: 034c7f95     	slli	t#1, 52, 	->t
7000581a: c688         	c.add	t#3, t#1, ->t
7000581c: 0181214b     	fmul.fd	a0, t#1, 	->a0
70005820: 029c         	c.setc.tgt	ra
70005822: 0880         	C.BSTART.FP	

0000000070005824 <__subtf3>:
; __subtf3():
70005824: c942         	C.BSTART.STD	DIRECT, 0x7000514c <__addtf3>
70005826: ffd6         	c.movi	-1, 	->t
70005828: 03fc7f95     	slli	t#1, 63, 	->t
7000582c: 0182c285     	xor	a3, t#1, 	->a3
70005830: 0800         	C.BSTART.STD	
70005832: 0000         	C.BSTOP

0000000070005834 <__fixunstfsi>:
; __fixunstfsi():
70005834: 00f4         	C.BSTART.STD	COND, 0x70005852 <.LBB0_2>
70005836: 0001cfd5     	cmp.lti	a1, 0, 	->t
7000583a: c0e19267     	bxu	a1, 48, 15, 	->a2
7000583e: 00003f97     	lui	3, 	->t
70005842: fffc0f95     	addi	t#1, 4095, 	->t
70005846: 01826fc5     	cmp.ltu	a2, t#1, 	->t
7000584a: c6f8         	c.or	t#4, t#1, ->t
7000584c: 0626         	c.setc.eq	t#1, zero
7000584e: 02c2         	C.BSTART.STD	DIRECT, 0x700058a6 <.LBB0_4>
70005850: 2806         	c.movr	zero, 	->a3

0000000070005852 <.LBB0_2>:
; .LBB0_2():
70005852: 02a4         	C.BSTART.STD	COND, 0x700058a6 <.LBB0_4>
70005854: ffffbf97     	lui	-5, 	->t
70005858: fe1c0f95     	addi	t#1, 4065, 	->t
7000585c: c108         	c.add	a2, t#1, ->t
7000585e: 2fd6         	c.movi	-1, 	->a3
70005860: 02001f95     	subi	zero, 32, 	->t
70005864: 018ce065     	setc.ltu	t#2, t#1
70005868: 0800         	C.BSTART.STD	
7000586a: c0f1afe7     	bic	a1, 48, 16, 	->t
7000586e: c00c3f67     	bis	t#1, 48, 1, 	->u
70005872: 001e7f15     	slli	u#1, 1, 	->u
70005876: 00004f97     	lui	4, 	->t
7000587a: 06fc0f95     	addi	t#1, 111, 	->t
7000587e: 2618         	c.sub	t#1, a2, ->t
70005880: 81fc2f67     	bic	t#1, 32, 32, 	->u
70005884: 01c15f85     	srl	a0, u#1, 	->t
70005888: 03f00f95     	addi	zero, 63, 	->t
7000588c: 05ac1f85     	sub	t#1, t#3.uw, 	->t
70005890: 018eff85     	sll	u#2, t#1, 	->t
70005894: c6f8         	c.or	t#4, t#1, ->t
70005896: 040e1f95     	subi	u#1, 64, 	->t
7000589a: 018f5f85     	srl	u#3, t#1, 	->t
7000589e: 000ccfd5     	cmp.lti	t#2, 0, 	->t
700058a2: c19d82f7     	csel	t#1, t#4, t#2, 	->a3

00000000700058a6 <.LBB0_4>:
; .LBB0_4():
700058a6: 3800         	C.BSTART.STD	RET
700058a8: 02503105     	or	zero, a3.sw, 	->a0
700058ac: 029c         	c.setc.tgt	ra
700058ae: 0800         	C.BSTART.STD	

00000000700058b0 <__floatunsitf>:
; __floatunsitf():
700058b0: 0524         	C.BSTART.STD	COND, 0x70005954 <.LBB0_2>
700058b2: 1886         	c.movr	a0, 	->a1
700058b4: 00e6         	c.setc.eq	a1, zero
700058b6: 0522         	C.BSTART.STD	DIRECT, 0x7000595a <.LBB0_3>
700058b8: 1006         	c.movr	zero, 	->a0
700058ba: 05e19f67     	bxu	a1, 1, 31, 	->u
700058be: e0f8         	c.or	a1, u#1, ->t
700058c0: 09dc1fe7     	bxu	t#1, 2, 30, 	->t
700058c4: c678         	c.or	t#2, t#1, ->t
700058c6: 11bc1fe7     	bxu	t#1, 4, 28, 	->t
700058ca: c678         	c.or	t#2, t#1, ->t
700058cc: 217c1fe7     	bxu	t#1, 8, 24, 	->t
700058d0: c678         	c.or	t#2, t#1, ->t
700058d2: 40fc1fe7     	bxu	t#1, 16, 16, 	->t
700058d6: c678         	c.or	t#2, t#1, ->t
700058d8: fffc4f15     	xori	t#1, -1, 	->u
700058dc: 001e5f95     	srli	u#1, 1, 	->t
700058e0: 55555f97     	lui	349525, 	->t
700058e4: 555c0f95     	addi	t#1, 1365, 	->t
700058e8: c6a8         	c.and	t#3, t#1, ->t
700058ea: 018e1fa5     	subw	u#1, t#1, 	->t
700058ee: 18ac         	c.srli	t#1, 2, ->t
700058f0: 33333f97     	lui	209715, 	->t
700058f4: 333c0f95     	addi	t#1, 819, 	->t
700058f8: c6e8         	c.and	t#4, t#1, ->t
700058fa: cee8         	c.and	t#4, t#2, ->t
700058fc: c648         	c.add	t#2, t#1, ->t
700058fe: 192c         	c.srli	t#1, 4, ->t
70005900: c648         	c.add	t#2, t#1, ->t
70005902: 0f0f0f97     	lui	61680, 	->t
70005906: f0fc0f95     	addi	t#1, 3855, 	->t
7000590a: c6a8         	c.and	t#3, t#1, ->t
7000590c: 01010f97     	lui	4112, 	->t
70005910: 101c0f95     	addi	t#1, 257, 	->t
70005914: 018d0fc7     	mul	t#3, t#1, 	->t
70005918: 607c1f67     	bxu	t#1, 24, 8, 	->u
7000591c: 011e0f95     	addi	u#1, 17, 	->t
70005920: 000c4f55     	cmp.lti	t#1, 0, 	->u
70005924: 68dc         	c.zext.w	a1, ->t
70005926: 019c7f85     	sll	t#1, t#2, 	->t
7000592a: 01201f95     	subi	zero, 18, 	->t
7000592e: ee18         	c.sub	t#1, u#2, ->t
70005930: 018fdf85     	srl	u#4, t#1, 	->t
70005934: e1bc0ff7     	csel	u#1, t#1, t#4, 	->t
70005938: f856         	c.movi	1, 	->t
7000593a: 030c7f95     	slli	t#1, 48, 	->t
7000593e: 018d4f05     	xor	t#3, t#1, 	->u
70005942: 00004f97     	lui	4, 	->t
70005946: 01ec0f95     	addi	t#1, 30, 	->t
7000594a: f618         	c.sub	t#1, u#3, ->t
7000594c: 030c7f95     	slli	t#1, 48, 	->t
70005950: 018e0185     	add	u#1, t#1, 	->a1

0000000070005954 <.LBB0_2>:
; .LBB0_2():
70005954: 0800         	C.BSTART.STD	
70005956: 1006         	c.movr	zero, 	->a0
70005958: 1806         	c.movr	zero, 	->a1

000000007000595a <.LBB0_3>:
; .LBB0_3():
7000595a: 3800         	C.BSTART.STD	RET
7000595c: 029c         	c.setc.tgt	ra
7000595e: 0800         	C.BSTART.STD	

0000000070005960 <__fixtfsi>:
; __fixtfsi():
70005960: 00b4         	C.BSTART.STD	COND, 0x70005976 <.LBB0_2>
70005962: c0e192e7     	bxu	a1, 48, 15, 	->a3
70005966: 00003f97     	lui	3, 	->t
7000596a: fffc0f95     	addi	t#1, 4095, 	->t
7000596e: 0182f065     	setc.geu	a3, t#1
70005972: 03b2         	C.BSTART.STD	DIRECT, 0x700059e8 <.LBB0_5>
70005974: 1006         	c.movr	zero, 	->a0

0000000070005976 <.LBB0_2>:
; .LBB0_2():
70005976: 0164         	C.BSTART.STD	COND, 0x700059a2 <.LBB0_4>
70005978: ffd6         	c.movi	-1, 	->t
7000597a: 003c4245     	cmp.lt	t#1, a1, 	->a2
7000597e: ffffbf97     	lui	-5, 	->t
70005982: fe1c0f95     	addi	t#1, 4065, 	->t
70005986: c148         	c.add	a3, t#1, ->t
70005988: 02101f95     	subi	zero, 33, 	->t
7000598c: 019c6065     	setc.ltu	t#1, t#2
70005990: 02c2         	C.BSTART.STD	DIRECT, 0x700059e8 <.LBB0_5>
70005992: 7fffff97     	lui	524287, 	->t
70005996: fffc0f95     	addi	t#1, 4095, 	->t
7000599a: 80000f97     	lui	-524288, 	->t
7000599e: 218c8177     	csel	a2, t#2, t#1, 	->a0

00000000700059a2 <.LBB0_4>:
; .LBB0_4():
700059a2: 0800         	C.BSTART.STD	
700059a4: c0f1afe7     	bic	a1, 48, 16, 	->t
700059a8: c00c3f67     	bis	t#1, 48, 1, 	->u
700059ac: 001e7f15     	slli	u#1, 1, 	->u
700059b0: 00004f97     	lui	4, 	->t
700059b4: 06fc0f95     	addi	t#1, 111, 	->t
700059b8: 2e18         	c.sub	t#1, a3, ->t
700059ba: 81fc2f67     	bic	t#1, 32, 32, 	->u
700059be: 01c15f85     	srl	a0, u#1, 	->t
700059c2: 03f00f95     	addi	zero, 63, 	->t
700059c6: 05ac1f85     	sub	t#1, t#3.uw, 	->t
700059ca: 018eff85     	sll	u#2, t#1, 	->t
700059ce: c6f8         	c.or	t#4, t#1, ->t
700059d0: 040e1f95     	subi	u#1, 64, 	->t
700059d4: 018f5f85     	srl	u#3, t#1, 	->t
700059d8: 000ccfd5     	cmp.lti	t#2, 0, 	->t
700059dc: c19d8ff7     	csel	t#1, t#4, t#2, 	->t
700059e0: 01801fa5     	subw	zero, t#1, 	->t
700059e4: 218c8177     	csel	a2, t#2, t#1, 	->a0

00000000700059e8 <.LBB0_5>:
; .LBB0_5():
700059e8: 3800         	C.BSTART.STD	RET
700059ea: 02203105     	or	zero, a0.sw, 	->a0
700059ee: 029c         	c.setc.tgt	ra
700059f0: 0800         	C.BSTART.STD	
700059f2: 0000         	C.BSTOP

00000000700059f4 <__floatsitf>:
; __floatsitf():
700059f4: 0714         	C.BSTART.STD	COND, 0x70005ad6 <.LBB0_2>
700059f6: 10009095     	subi	sp, 256, 	->sp
700059fa: 1886         	c.movr	a0, 	->a1
700059fc: 00e6         	c.setc.eq	a1, zero
700059fe: 06f2         	C.BSTART.STD	DIRECT, 0x70005adc <.LBB0_3>
70005a00: 1006         	c.movr	zero, 	->a0
70005a02: 50dc         	c.sext.w	a1, ->t
70005a04: 01fc6f95     	srai	t#1, 31, 	->t
70005a08: 0181cf85     	xor	a1, t#1, 	->t
70005a0c: 019c1f25     	subw	t#1, t#2, 	->u
70005a10: 81fe2f67     	bic	u#1, 32, 32, 	->u
70005a14: 01e1afe7     	bic	a1, 0, 31, 	->t
70005a18: 020c7f95     	slli	t#1, 32, 	->t
70005a1c: 3e1c3059     	sdi	t#1, [sp, 248]
70005a20: 05ee9fe7     	bxu	u#2, 1, 31, 	->t
70005a24: c778         	c.or	u#2, t#1, ->t
70005a26: 09dc1fe7     	bxu	t#1, 2, 30, 	->t
70005a2a: c678         	c.or	t#2, t#1, ->t
70005a2c: fec6         	c.movr	t#4, 	->t
70005a2e: 11bc9fe7     	bxu	t#2, 4, 28, 	->t
70005a32: c6b8         	c.or	t#3, t#1, ->t
70005a34: 217c1fe7     	bxu	t#1, 8, 24, 	->t
70005a38: fec6         	c.movr	t#4, 	->t
70005a3a: ceb8         	c.or	t#3, t#2, ->t
70005a3c: 40fc1fe7     	bxu	t#1, 16, 16, 	->t
70005a40: c678         	c.or	t#2, t#1, ->t
70005a42: fffc4f15     	xori	t#1, -1, 	->u
70005a46: fec6         	c.movr	t#4, 	->t
70005a48: 001e5f95     	srli	u#1, 1, 	->t
70005a4c: 55555f97     	lui	349525, 	->t
70005a50: 555c0f95     	addi	t#1, 1365, 	->t
70005a54: fec6         	c.movr	t#4, 	->t
70005a56: cee8         	c.and	t#4, t#2, ->t
70005a58: 018e1fa5     	subw	u#1, t#1, 	->t
70005a5c: 18ac         	c.srli	t#1, 2, ->t
70005a5e: fec6         	c.movr	t#4, 	->t
70005a60: 33333f97     	lui	209715, 	->t
70005a64: fec6         	c.movr	t#4, 	->t
70005a66: fec6         	c.movr	t#4, 	->t
70005a68: fec6         	c.movr	t#4, 	->t
70005a6a: 333d8f95     	addi	t#4, 819, 	->t
70005a6e: c6e8         	c.and	t#4, t#1, ->t
70005a70: cee8         	c.and	t#4, t#2, ->t
70005a72: fec6         	c.movr	t#4, 	->t
70005a74: ce88         	c.add	t#3, t#2, ->t
70005a76: 192c         	c.srli	t#1, 4, ->t
70005a78: c648         	c.add	t#2, t#1, ->t
70005a7a: fec6         	c.movr	t#4, 	->t
70005a7c: 0f0f0f97     	lui	61680, 	->t
70005a80: f0fc0f95     	addi	t#1, 3855, 	->t
70005a84: c6e8         	c.and	t#4, t#1, ->t
70005a86: fec6         	c.movr	t#4, 	->t
70005a88: 01010f97     	lui	4112, 	->t
70005a8c: 101c0f95     	addi	t#1, 257, 	->t
70005a90: 018d8fc7     	mul	t#4, t#1, 	->t
70005a94: 607c1f67     	bxu	t#1, 24, 8, 	->u
70005a98: 011e0f15     	addi	u#1, 17, 	->u
70005a9c: 01cfff05     	sll	u#4, u#1, 	->u
70005aa0: fec6         	c.movr	t#4, 	->t
70005aa2: 01201f95     	subi	zero, 18, 	->t
70005aa6: f618         	c.sub	t#1, u#3, ->t
70005aa8: 018d5f85     	srl	t#3, t#1, 	->t
70005aac: 000ecfd5     	cmp.lti	u#2, 0, 	->t
70005ab0: c1cc8ff7     	csel	t#1, t#2, u#1, 	->t
70005ab4: f856         	c.movi	1, 	->t
70005ab6: 030c7f95     	slli	t#1, 48, 	->t
70005aba: 018d4f05     	xor	t#3, t#1, 	->u
70005abe: 00004f97     	lui	4, 	->t
70005ac2: 01ec0f95     	addi	t#1, 30, 	->t
70005ac6: fe18         	c.sub	t#1, u#4, ->t
70005ac8: 030c7f95     	slli	t#1, 48, 	->t
70005acc: c708         	c.add	u#1, t#1, ->t
70005ace: 01f0bf99     	ldi	[sp, 248], 	->t
70005ad2: 018cb185     	or	t#2, t#1, 	->a1

0000000070005ad6 <.LBB0_2>:
; .LBB0_2():
70005ad6: 0800         	C.BSTART.STD	
70005ad8: 1006         	c.movr	zero, 	->a0
70005ada: 1806         	c.movr	zero, 	->a1

0000000070005adc <.LBB0_3>:
; .LBB0_3():
70005adc: 3800         	C.BSTART.STD	RET
70005ade: 10008095     	addi	sp, 256, 	->sp
70005ae2: 029c         	c.setc.tgt	ra
70005ae4: 0800         	C.BSTART.STD	
70005ae6: 0000         	C.BSTOP

0000000070005ae8 <memcpy>:
; memcpy():
70005ae8: 00a4         	C.BSTART.STD	COND, 0x70005afc <.LBB0_4>
70005aea: 01025f95     	srli	a2, 16, 	->t
70005aee: 0636         	c.setc.ne	t#1, zero
70005af0: 0800         	C.BSTART.STD	
70005af2: 2886         	c.movr	a0, 	->a3

0000000070005af4 <.LBB0_2>:
; .LBB0_2():
70005af4: 20328031     	MCOPY	[a3, a1, a2]
70005af8: 3800         	C.BSTART.STD	RET
70005afa: 029c         	c.setc.tgt	ra

0000000070005afc <.LBB0_4>:
; .LBB0_4():
70005afc: 0800         	C.BSTART.STD	
70005afe: 2886         	c.movr	a0, 	->a3

0000000070005b00 <.LBB0_5>:
; .LBB0_5():
70005b00: 0800         	C.BSTART.STD	
70005b02: 0000ff97     	lui	15, 	->t
70005b06: fffc0315     	addi	t#1, 4095, 	->a4
70005b0a: 30328031     	MCOPY	[a3, a1, a4]
70005b0e: ff34         	C.BSTART.STD	COND, 0x70005af4 <.LBB0_2>
70005b10: ffff0f97     	lui	-16, 	->t
70005b14: 0e0c         	c.addi	t#1, 1, ->t
70005b16: 01820205     	add	a2, t#1, 	->a2
70005b1a: 01025f95     	srli	a2, 16, 	->t
70005b1e: 0626         	c.setc.eq	t#1, zero
70005b20: 00628285     	add	a3, a4, 	->a3
70005b24: 00618185     	add	a1, a4, 	->a1
70005b28: fec2         	C.BSTART.STD	DIRECT, 0x70005b00 <.LBB0_5>
70005b2a: 0800         	C.BSTART.STD	

0000000070005b2c <memset>:
; memset():
70005b2c: 00a4         	C.BSTART.STD	COND, 0x70005b40 <.LBB0_4>
70005b2e: 01025f95     	srli	a2, 16, 	->t
70005b32: 0636         	c.setc.ne	t#1, zero
70005b34: 0800         	C.BSTART.STD	
70005b36: 2886         	c.movr	a0, 	->a3

0000000070005b38 <.LBB0_2>:
; .LBB0_2():
70005b38: 20329031     	MSET	[a3, a1, a2]
70005b3c: 3800         	C.BSTART.STD	RET
70005b3e: 029c         	c.setc.tgt	ra

0000000070005b40 <.LBB0_4>:
; .LBB0_4():
70005b40: 0800         	C.BSTART.STD	
70005b42: 2886         	c.movr	a0, 	->a3

0000000070005b44 <.LBB0_5>:
; .LBB0_5():
70005b44: 0800         	C.BSTART.STD	
70005b46: 0000ff97     	lui	15, 	->t
70005b4a: fffc0315     	addi	t#1, 4095, 	->a4
70005b4e: 30329031     	MSET	[a3, a1, a4]
70005b52: ff34         	C.BSTART.STD	COND, 0x70005b38 <.LBB0_2>
70005b54: ffff0f97     	lui	-16, 	->t
70005b58: 0e0c         	c.addi	t#1, 1, ->t
70005b5a: 01820205     	add	a2, t#1, 	->a2
70005b5e: 01025f95     	srli	a2, 16, 	->t
70005b62: 0626         	c.setc.eq	t#1, zero
70005b64: 00628285     	add	a3, a4, 	->a3
70005b68: fee2         	C.BSTART.STD	DIRECT, 0x70005b44 <.LBB0_5>
70005b6a: 0800         	C.BSTART.STD	

0000000070005b6c <strnlen>:
; strnlen():
70005b6c: 40c50041     	FENTRY	[ra ~ s1], sp!, 256
70005b70: 0800         	C.BSTART.STD	
70005b72: 00f2         	C.BSTART.STD	DIRECT, 0x70005b90 <memchr>
70005b74: 5156         	c.setret	0x70005b7e, ->ra <strnlen+0x12>
70005b76: 58c6         	c.movr	a1, 	->s0
70005b78: 6086         	c.movr	a0, 	->s1
70005b7a: 1806         	c.movr	zero, 	->a1
70005b7c: 22c6         	c.movr	s0, 	->a2
; ():
70005b7e: 0800         	C.BSTART.STD	
70005b80: 00010fd5     	cmp.eqi	a0, 0, 	->t
70005b84: 6098         	c.sub	a0, s1, ->t
70005b86: c9858177     	csel	t#2, s0, t#1, 	->a0
70005b8a: 40c53041     	FRET.STK	[ra ~ s1], sp!, 256
70005b8e: 0800         	C.BSTART.STD	

0000000070005b90 <memchr>:
; memchr():
70005b90: 0214         	C.BSTART.STD	COND, 0x70005bd2 <.LBB0_4>
70005b92: 0fc12fe7     	bic	a0, 3, 61, 	->t
70005b96: 002c         	c.cmp.eqi	t#1, 0, ->t
70005b98: 2371a1e7     	bic	a1, 8, 56, 	->a1
70005b9c: 00020fd5     	cmp.eqi	a2, 0, 	->t
70005ba0: 018cb065     	setc.or	t#2, t#1
70005ba4: 0800         	C.BSTART.STD	
70005ba6: 2906         	c.movr	a2, 	->a3
70005ba8: 00110315     	addi	a0, 1, 	->a4

0000000070005bac <.LBB0_2>:
; .LBB0_2():
70005bac: 0194         	C.BSTART.STD	COND, 0x70005bde <.LBB0_6>
70005bae: 00014f89     	lbu	[a0, zero], 	->t
70005bb2: 1e26         	c.setc.eq	t#1, a1
70005bb4: ffc4         	C.BSTART.STD	COND, 0x70005bac <.LBB0_2>
70005bb6: 00110115     	addi	a0, 1, 	->a0
70005bba: 00129215     	subi	a3, 1, 	->a2
70005bbe: 00732fd5     	cmp.andi	a4, 7, 	->t
70005bc2: 001293d5     	cmp.nei	a3, 1, 	->a5
70005bc6: 2906         	c.movr	a2, 	->a3
70005bc8: 007c2065     	setc.and	t#1, a5
70005bcc: 00130315     	addi	a4, 1, 	->a4
70005bd0: 0042         	C.BSTART.STD	DIRECT, 0x70005bd8 <.LBB0_5>

0000000070005bd2 <.LBB0_4>:
; .LBB0_4():
70005bd2: 0800         	C.BSTART.STD	
70005bd4: 000213d5     	cmp.nei	a2, 0, 	->a5

0000000070005bd8 <.LBB0_5>:
; .LBB0_5():
70005bd8: 0454         	C.BSTART.STD	COND, 0x70005c62 <.LBB0_15>
70005bda: 01e6         	c.setc.eq	a5, zero
70005bdc: 2906         	c.movr	a2, 	->a3

0000000070005bde <.LBB0_6>:
; .LBB0_6():
70005bde: 0344         	C.BSTART.STD	COND, 0x70005c46 <.LBB0_11>
70005be0: 00014f89     	lbu	[a0, zero], 	->t
70005be4: 1e26         	c.setc.eq	t#1, a1
70005be6: 0304         	C.BSTART.STD	COND, 0x70005c46 <.LBB0_11>
70005be8: 0082e075     	setc.ltui	a3, 8
70005bec: 0800         	C.BSTART.STD	
70005bee: 01010f97     	lui	4112, 	->t
70005bf2: 101c0f95     	addi	t#1, 257, 	->t
70005bf6: 103e 2fcd 018c       	hl.bfi	t#1, t#1, 4, 4, 	->t
70005bfc: 01818247     	mul	a1, t#1, 	->a2

0000000070005c00 <.LBB0_9>:
; .LBB0_9():
70005c00: 0254         	C.BSTART.STD	COND, 0x70005c4a <.LBB0_12>
70005c02: 00013f89     	ld	[a0, zero], 	->t
70005c06: 004c4f05     	xor	t#1, a2, 	->u
70005c0a: fefeff97     	lui	-4113, 	->t
70005c0e: effc0f95     	addi	t#1, 3839, 	->t
70005c12: 142c         	c.slli	t#1, 16, ->t
70005c14: 101c1f95     	subi	t#1, 257, 	->t
70005c18: 142c         	c.slli	t#1, 16, ->t
70005c1a: 101c1f95     	subi	t#1, 257, 	->t
70005c1e: c708         	c.add	u#1, t#1, ->t
70005c20: 07cc2f85     	and	t#1, u#1.not, 	->t
70005c24: 80808f97     	lui	-522232, 	->t
70005c28: 080c0f95     	addi	t#1, 128, 	->t
70005c2c: 103e 2fcd 018c       	hl.bfi	t#1, t#1, 4, 4, 	->t
70005c32: 018da065     	setc.and	t#4, t#1
70005c36: fe54         	C.BSTART.STD	COND, 0x70005c00 <.LBB0_9>
70005c38: 00810115     	addi	a0, 8, 	->a0
70005c3c: 00829295     	subi	a3, 8, 	->a3
70005c40: f9d6         	c.movi	7, 	->t
70005c42: 005c6065     	setc.ltu	t#1, a3

0000000070005c46 <.LBB0_11>:
; .LBB0_11():
70005c46: 0104         	C.BSTART.STD	COND, 0x70005c66 <.LBB0_16>
70005c48: 0166         	c.setc.eq	a3, zero

0000000070005c4a <.LBB0_12>:
; .LBB0_12():
70005c4a: 0104         	C.BSTART.STD	COND, 0x70005c6a <.LBB0_17>
70005c4c: 00014f89     	lbu	[a0, zero], 	->t
70005c50: 1e26         	c.setc.eq	t#1, a1
70005c52: ffc4         	C.BSTART.STD	COND, 0x70005c4a <.LBB0_12>
70005c54: 00110115     	addi	a0, 1, 	->a0
70005c58: 00129295     	subi	a3, 1, 	->a3
70005c5c: 0176         	c.setc.ne	a3, zero
70005c5e: 0062         	C.BSTART.STD	DIRECT, 0x70005c6a <.LBB0_17>
70005c60: 1006         	c.movr	zero, 	->a0

0000000070005c62 <.LBB0_15>:
; .LBB0_15():
70005c62: 0042         	C.BSTART.STD	DIRECT, 0x70005c6a <.LBB0_17>
70005c64: 1006         	c.movr	zero, 	->a0

0000000070005c66 <.LBB0_16>:
; .LBB0_16():
70005c66: 0800         	C.BSTART.STD	
70005c68: 1006         	c.movr	zero, 	->a0

0000000070005c6a <.LBB0_17>:
; .LBB0_17():
70005c6a: 3800         	C.BSTART.STD	RET
70005c6c: 029c         	c.setc.tgt	ra
70005c6e: 0800         	C.BSTART.STD	

0000000070005c70 <__lock>:
; __lock():
70005c70: 0154         	C.BSTART.STD	COND, 0x70005c9a <.LBB0_3>
; ():
70005c72: 00001f87     	addtpc	1, 	->t
70005c76: fa1c0199     	lbi	[t#1, -95], 	->a1
70005c7a: 00e6         	c.setc.eq	a1, zero
70005c7c: 00f4         	C.BSTART.STD	COND, 0x70005c9a <.LBB0_3>
70005c7e: 80000f97     	lui	-524288, 	->t
70005c82: 0e0c         	c.addi	t#1, 1, ->t
70005c84: 6e1c         	c.zext.w	t#1, ->t
70005c86: c0012049     	sw	t#1, [a0, zero<<2]
70005c8a: ffd6         	c.movi	-1, 	->t
70005c8c: 003c4065     	setc.lt	t#1, a1
70005c90: 0800         	C.BSTART.STD	
70005c92: 00001f87     	addtpc	1, 	->t
70005c96: 03800fd9     	sbi	zero, [t#1, -127]

0000000070005c9a <.LBB0_3>:
; .LBB0_3():
70005c9a: 3800         	C.BSTART.STD	RET
70005c9c: 029c         	c.setc.tgt	ra
70005c9e: 0800         	C.BSTART.STD	

0000000070005ca0 <__unlock>:
; __unlock():
70005ca0: 40b58041     	FENTRY	[s0 ~ s0], sp!, 256
70005ca4: 0800         	C.BSTART.STD	
70005ca6: 03d4         	C.BSTART.STD	COND, 0x70005d20 <.LBB1_8>
70005ca8: 4086         	c.movr	a0, 	->a6
70005caa: 00012f89     	lw	[a0, zero], 	->t
70005cae: ffd6         	c.movi	-1, 	->t
70005cb0: 019c4065     	setc.lt	t#1, t#2
70005cb4: 0364         	C.BSTART.STD	COND, 0x70005d20 <.LBB1_8>
70005cb6: 00042f09     	lw	[a6, zero], 	->u
70005cba: 7fffff97     	lui	524287, 	->t
70005cbe: fffc0f95     	addi	t#1, 4095, 	->t
70005cc2: c708         	c.add	u#1, t#1, ->t
70005cc4: c0042049     	sw	t#1, [a6, zero<<2]
70005cc8: 80000f97     	lui	-524288, 	->t
70005ccc: 0e0c         	c.addi	t#1, 1, ->t
70005cce: c726         	c.setc.eq	u#1, t#1
70005cd0: 0800         	C.BSTART.STD	
70005cd2: 08100495     	addi	zero, 129, 	->a7
70005cd6: b056         	c.movi	1, 	->x2
70005cd8: 06200595     	addi	zero, 98, 	->s0
70005cdc: a206         	c.movr	a6, 	->x0
70005cde: 0840         	C.BSTART.AUX	
70005ce0: 1506         	c.movr	x0, 	->a0
70005ce2: 1a46         	c.movr	a7, 	->a1
70005ce4: 2586         	c.movr	x2, 	->a2
70005ce6: 2806         	c.movr	zero, 	->a3
70005ce8: 3006         	c.movr	zero, 	->a4
70005cea: 3806         	c.movr	zero, 	->a5
70005cec: aac6         	c.movr	s0, 	->x1
70005cee: 0010302b     	acrc 1
70005cf2: 0800         	C.BSTART.STD	
70005cf4: a086         	c.movr	a0, 	->x0
70005cf6: 0154         	C.BSTART.STD	COND, 0x70005d20 <.LBB1_8>
70005cf8: fdaa1075     	setc.nei	x0, -38
70005cfc: 0800         	C.BSTART.STD	
70005cfe: 4856         	c.movi	1, 	->a7
70005d00: 06200a15     	addi	zero, 98, 	->x0
70005d04: 0840         	C.BSTART.AUX	
70005d06: 1206         	c.movr	a6, 	->a0
70005d08: 1a46         	c.movr	a7, 	->a1
70005d0a: 2246         	c.movr	a7, 	->a2
70005d0c: 2806         	c.movr	zero, 	->a3
70005d0e: 3006         	c.movr	zero, 	->a4
70005d10: 3806         	c.movr	zero, 	->a5
70005d12: ad06         	c.movr	x0, 	->x1
70005d14: 0010302b     	acrc 1
70005d18: 0800         	C.BSTART.STD	
70005d1a: 4086         	c.movr	a0, 	->a6
70005d1c: 40b5a041     	FRET.RA	[s0 ~ s0], sp!, 256

0000000070005d20 <.LBB1_8>:
; .LBB1_8():
70005d20: 40b5a041     	FRET.RA	[s0 ~ s0], sp!, 256
70005d24: 0800         	C.BSTART.STD	
70005d26: 0000         	C.BSTOP
